
STM32F301_HotPlate.elf:     file format elf32-littlearm

Sections:
Idx Name          Size      VMA       LMA       File off  Algn
  0 .isr_vector   00000188  08000000  08000000  00001000  2**0
                  CONTENTS, ALLOC, LOAD, READONLY, DATA
  1 .text         000043a4  08000190  08000190  00001190  2**4
                  CONTENTS, ALLOC, LOAD, READONLY, CODE
  2 .rodata       000000a0  08004534  08004534  00005534  2**0
                  CONTENTS, ALLOC, LOAD, READONLY, DATA
  3 .ARM.extab    00000000  080045d4  080045d4  00006070  2**0
                  CONTENTS, READONLY
  4 .ARM          00000008  080045d4  080045d4  000055d4  2**2
                  CONTENTS, ALLOC, LOAD, READONLY, DATA
  5 .preinit_array 00000000  080045dc  080045dc  00006070  2**0
                  CONTENTS, ALLOC, LOAD, DATA
  6 .init_array   00000004  080045dc  080045dc  000055dc  2**2
                  CONTENTS, ALLOC, LOAD, READONLY, DATA
  7 .fini_array   00000004  080045e0  080045e0  000055e0  2**2
                  CONTENTS, ALLOC, LOAD, READONLY, DATA
  8 .data         00000070  20000000  080045e4  00006000  2**2
                  CONTENTS, ALLOC, LOAD, DATA
  9 .bss          0000049c  20000070  08004654  00006070  2**2
                  ALLOC
 10 ._user_heap_stack 00000604  2000050c  08004654  0000650c  2**0
                  ALLOC
 11 .ARM.attributes 00000030  00000000  00000000  00006070  2**0
                  CONTENTS, READONLY
 12 .comment      00000043  00000000  00000000  000060a0  2**0
                  CONTENTS, READONLY
 13 .debug_frame  00000734  00000000  00000000  000060e4  2**2
                  CONTENTS, READONLY, DEBUGGING, OCTETS

Disassembly of section .text:

08000190 <__do_global_dtors_aux>:
 8000190:	b510      	push	{r4, lr}
 8000192:	4c05      	ldr	r4, [pc, #20]	@ (80001a8 <__do_global_dtors_aux+0x18>)
 8000194:	7823      	ldrb	r3, [r4, #0]
 8000196:	b933      	cbnz	r3, 80001a6 <__do_global_dtors_aux+0x16>
 8000198:	4b04      	ldr	r3, [pc, #16]	@ (80001ac <__do_global_dtors_aux+0x1c>)
 800019a:	b113      	cbz	r3, 80001a2 <__do_global_dtors_aux+0x12>
 800019c:	4804      	ldr	r0, [pc, #16]	@ (80001b0 <__do_global_dtors_aux+0x20>)
 800019e:	f3af 8000 	nop.w
 80001a2:	2301      	movs	r3, #1
 80001a4:	7023      	strb	r3, [r4, #0]
 80001a6:	bd10      	pop	{r4, pc}
 80001a8:	20000070 	.word	0x20000070
 80001ac:	00000000 	.word	0x00000000
 80001b0:	0800451c 	.word	0x0800451c

080001b4 <frame_dummy>:
 80001b4:	b508      	push	{r3, lr}
 80001b6:	4b03      	ldr	r3, [pc, #12]	@ (80001c4 <frame_dummy+0x10>)
 80001b8:	b11b      	cbz	r3, 80001c2 <frame_dummy+0xe>
 80001ba:	4903      	ldr	r1, [pc, #12]	@ (80001c8 <frame_dummy+0x14>)
 80001bc:	4803      	ldr	r0, [pc, #12]	@ (80001cc <frame_dummy+0x18>)
 80001be:	f3af 8000 	nop.w
 80001c2:	bd08      	pop	{r3, pc}
 80001c4:	00000000 	.word	0x00000000
 80001c8:	20000074 	.word	0x20000074
 80001cc:	0800451c 	.word	0x0800451c

080001d0 <strlen>:
 80001d0:	4603      	mov	r3, r0
 80001d2:	f813 2b01 	ldrb.w	r2, [r3], #1
 80001d6:	2a00      	cmp	r2, #0
 80001d8:	d1fb      	bne.n	80001d2 <strlen+0x2>
 80001da:	1a18      	subs	r0, r3, r0
 80001dc:	3801      	subs	r0, #1
 80001de:	4770      	bx	lr

080001e0 <memchr>:
 80001e0:	f001 01ff 	and.w	r1, r1, #255	@ 0xff
 80001e4:	2a10      	cmp	r2, #16
 80001e6:	db2b      	blt.n	8000240 <memchr+0x60>
 80001e8:	f010 0f07 	tst.w	r0, #7
 80001ec:	d008      	beq.n	8000200 <memchr+0x20>
 80001ee:	f810 3b01 	ldrb.w	r3, [r0], #1
 80001f2:	3a01      	subs	r2, #1
 80001f4:	428b      	cmp	r3, r1
 80001f6:	d02d      	beq.n	8000254 <memchr+0x74>
 80001f8:	f010 0f07 	tst.w	r0, #7
 80001fc:	b342      	cbz	r2, 8000250 <memchr+0x70>
 80001fe:	d1f6      	bne.n	80001ee <memchr+0xe>
 8000200:	b4f0      	push	{r4, r5, r6, r7}
 8000202:	ea41 2101 	orr.w	r1, r1, r1, lsl #8
 8000206:	ea41 4101 	orr.w	r1, r1, r1, lsl #16
 800020a:	f022 0407 	bic.w	r4, r2, #7
 800020e:	f07f 0700 	mvns.w	r7, #0
 8000212:	2300      	movs	r3, #0
 8000214:	e8f0 5602 	ldrd	r5, r6, [r0], #8
 8000218:	3c08      	subs	r4, #8
 800021a:	ea85 0501 	eor.w	r5, r5, r1
 800021e:	ea86 0601 	eor.w	r6, r6, r1
 8000222:	fa85 f547 	uadd8	r5, r5, r7
 8000226:	faa3 f587 	sel	r5, r3, r7
 800022a:	fa86 f647 	uadd8	r6, r6, r7
 800022e:	faa5 f687 	sel	r6, r5, r7
 8000232:	b98e      	cbnz	r6, 8000258 <memchr+0x78>
 8000234:	d1ee      	bne.n	8000214 <memchr+0x34>
 8000236:	bcf0      	pop	{r4, r5, r6, r7}
 8000238:	f001 01ff 	and.w	r1, r1, #255	@ 0xff
 800023c:	f002 0207 	and.w	r2, r2, #7
 8000240:	b132      	cbz	r2, 8000250 <memchr+0x70>
 8000242:	f810 3b01 	ldrb.w	r3, [r0], #1
 8000246:	3a01      	subs	r2, #1
 8000248:	ea83 0301 	eor.w	r3, r3, r1
 800024c:	b113      	cbz	r3, 8000254 <memchr+0x74>
 800024e:	d1f8      	bne.n	8000242 <memchr+0x62>
 8000250:	2000      	movs	r0, #0
 8000252:	4770      	bx	lr
 8000254:	3801      	subs	r0, #1
 8000256:	4770      	bx	lr
 8000258:	2d00      	cmp	r5, #0
 800025a:	bf06      	itte	eq
 800025c:	4635      	moveq	r5, r6
 800025e:	3803      	subeq	r0, #3
 8000260:	3807      	subne	r0, #7
 8000262:	f015 0f01 	tst.w	r5, #1
 8000266:	d107      	bne.n	8000278 <memchr+0x98>
 8000268:	3001      	adds	r0, #1
 800026a:	f415 7f80 	tst.w	r5, #256	@ 0x100
 800026e:	bf02      	ittt	eq
 8000270:	3001      	addeq	r0, #1
 8000272:	f415 3fc0 	tsteq.w	r5, #98304	@ 0x18000
 8000276:	3001      	addeq	r0, #1
 8000278:	bcf0      	pop	{r4, r5, r6, r7}
 800027a:	3801      	subs	r0, #1
 800027c:	4770      	bx	lr
 800027e:	bf00      	nop

08000280 <__aeabi_drsub>:
 8000280:	f081 4100 	eor.w	r1, r1, #2147483648	@ 0x80000000
 8000284:	e002      	b.n	800028c <__adddf3>
 8000286:	bf00      	nop

08000288 <__aeabi_dsub>:
 8000288:	f083 4300 	eor.w	r3, r3, #2147483648	@ 0x80000000

0800028c <__adddf3>:
 800028c:	b530      	push	{r4, r5, lr}
 800028e:	ea4f 0441 	mov.w	r4, r1, lsl #1
 8000292:	ea4f 0543 	mov.w	r5, r3, lsl #1
 8000296:	ea94 0f05 	teq	r4, r5
 800029a:	bf08      	it	eq
 800029c:	ea90 0f02 	teqeq	r0, r2
 80002a0:	bf1f      	itttt	ne
 80002a2:	ea54 0c00 	orrsne.w	ip, r4, r0
 80002a6:	ea55 0c02 	orrsne.w	ip, r5, r2
 80002aa:	ea7f 5c64 	mvnsne.w	ip, r4, asr #21
 80002ae:	ea7f 5c65 	mvnsne.w	ip, r5, asr #21
 80002b2:	f000 80e2 	beq.w	800047a <__adddf3+0x1ee>
 80002b6:	ea4f 5454 	mov.w	r4, r4, lsr #21
 80002ba:	ebd4 5555 	rsbs	r5, r4, r5, lsr #21
 80002be:	bfb8      	it	lt
 80002c0:	426d      	neglt	r5, r5
 80002c2:	dd0c      	ble.n	80002de <__adddf3+0x52>
 80002c4:	442c      	add	r4, r5
 80002c6:	ea80 0202 	eor.w	r2, r0, r2
 80002ca:	ea81 0303 	eor.w	r3, r1, r3
 80002ce:	ea82 0000 	eor.w	r0, r2, r0
 80002d2:	ea83 0101 	eor.w	r1, r3, r1
 80002d6:	ea80 0202 	eor.w	r2, r0, r2
 80002da:	ea81 0303 	eor.w	r3, r1, r3
 80002de:	2d36      	cmp	r5, #54	@ 0x36
 80002e0:	bf88      	it	hi
 80002e2:	bd30      	pophi	{r4, r5, pc}
 80002e4:	f011 4f00 	tst.w	r1, #2147483648	@ 0x80000000
 80002e8:	ea4f 3101 	mov.w	r1, r1, lsl #12
 80002ec:	f44f 1c80 	mov.w	ip, #1048576	@ 0x100000
 80002f0:	ea4c 3111 	orr.w	r1, ip, r1, lsr #12
 80002f4:	d002      	beq.n	80002fc <__adddf3+0x70>
 80002f6:	4240      	negs	r0, r0
 80002f8:	eb61 0141 	sbc.w	r1, r1, r1, lsl #1
 80002fc:	f013 4f00 	tst.w	r3, #2147483648	@ 0x80000000
 8000300:	ea4f 3303 	mov.w	r3, r3, lsl #12
 8000304:	ea4c 3313 	orr.w	r3, ip, r3, lsr #12
 8000308:	d002      	beq.n	8000310 <__adddf3+0x84>
 800030a:	4252      	negs	r2, r2
 800030c:	eb63 0343 	sbc.w	r3, r3, r3, lsl #1
 8000310:	ea94 0f05 	teq	r4, r5
 8000314:	f000 80a7 	beq.w	8000466 <__adddf3+0x1da>
 8000318:	f1a4 0401 	sub.w	r4, r4, #1
 800031c:	f1d5 0e20 	rsbs	lr, r5, #32
 8000320:	db0d      	blt.n	800033e <__adddf3+0xb2>
 8000322:	fa02 fc0e 	lsl.w	ip, r2, lr
 8000326:	fa22 f205 	lsr.w	r2, r2, r5
 800032a:	1880      	adds	r0, r0, r2
 800032c:	f141 0100 	adc.w	r1, r1, #0
 8000330:	fa03 f20e 	lsl.w	r2, r3, lr
 8000334:	1880      	adds	r0, r0, r2
 8000336:	fa43 f305 	asr.w	r3, r3, r5
 800033a:	4159      	adcs	r1, r3
 800033c:	e00e      	b.n	800035c <__adddf3+0xd0>
 800033e:	f1a5 0520 	sub.w	r5, r5, #32
 8000342:	f10e 0e20 	add.w	lr, lr, #32
 8000346:	2a01      	cmp	r2, #1
 8000348:	fa03 fc0e 	lsl.w	ip, r3, lr
 800034c:	bf28      	it	cs
 800034e:	f04c 0c02 	orrcs.w	ip, ip, #2
 8000352:	fa43 f305 	asr.w	r3, r3, r5
 8000356:	18c0      	adds	r0, r0, r3
 8000358:	eb51 71e3 	adcs.w	r1, r1, r3, asr #31
 800035c:	f001 4500 	and.w	r5, r1, #2147483648	@ 0x80000000
 8000360:	d507      	bpl.n	8000372 <__adddf3+0xe6>
 8000362:	f04f 0e00 	mov.w	lr, #0
 8000366:	f1dc 0c00 	rsbs	ip, ip, #0
 800036a:	eb7e 0000 	sbcs.w	r0, lr, r0
 800036e:	eb6e 0101 	sbc.w	r1, lr, r1
 8000372:	f5b1 1f80 	cmp.w	r1, #1048576	@ 0x100000
 8000376:	d31b      	bcc.n	80003b0 <__adddf3+0x124>
 8000378:	f5b1 1f00 	cmp.w	r1, #2097152	@ 0x200000
 800037c:	d30c      	bcc.n	8000398 <__adddf3+0x10c>
 800037e:	0849      	lsrs	r1, r1, #1
 8000380:	ea5f 0030 	movs.w	r0, r0, rrx
 8000384:	ea4f 0c3c 	mov.w	ip, ip, rrx
 8000388:	f104 0401 	add.w	r4, r4, #1
 800038c:	ea4f 5244 	mov.w	r2, r4, lsl #21
 8000390:	f512 0f80 	cmn.w	r2, #4194304	@ 0x400000
 8000394:	f080 809a 	bcs.w	80004cc <__adddf3+0x240>
 8000398:	f1bc 4f00 	cmp.w	ip, #2147483648	@ 0x80000000
 800039c:	bf08      	it	eq
 800039e:	ea5f 0c50 	movseq.w	ip, r0, lsr #1
 80003a2:	f150 0000 	adcs.w	r0, r0, #0
 80003a6:	eb41 5104 	adc.w	r1, r1, r4, lsl #20
 80003aa:	ea41 0105 	orr.w	r1, r1, r5
 80003ae:	bd30      	pop	{r4, r5, pc}
 80003b0:	ea5f 0c4c 	movs.w	ip, ip, lsl #1
 80003b4:	4140      	adcs	r0, r0
 80003b6:	eb41 0101 	adc.w	r1, r1, r1
 80003ba:	3c01      	subs	r4, #1
 80003bc:	bf28      	it	cs
 80003be:	f5b1 1f80 	cmpcs.w	r1, #1048576	@ 0x100000
 80003c2:	d2e9      	bcs.n	8000398 <__adddf3+0x10c>
 80003c4:	f091 0f00 	teq	r1, #0
 80003c8:	bf04      	itt	eq
 80003ca:	4601      	moveq	r1, r0
 80003cc:	2000      	moveq	r0, #0
 80003ce:	fab1 f381 	clz	r3, r1
 80003d2:	bf08      	it	eq
 80003d4:	3320      	addeq	r3, #32
 80003d6:	f1a3 030b 	sub.w	r3, r3, #11
 80003da:	f1b3 0220 	subs.w	r2, r3, #32
 80003de:	da0c      	bge.n	80003fa <__adddf3+0x16e>
 80003e0:	320c      	adds	r2, #12
 80003e2:	dd08      	ble.n	80003f6 <__adddf3+0x16a>
 80003e4:	f102 0c14 	add.w	ip, r2, #20
 80003e8:	f1c2 020c 	rsb	r2, r2, #12
 80003ec:	fa01 f00c 	lsl.w	r0, r1, ip
 80003f0:	fa21 f102 	lsr.w	r1, r1, r2
 80003f4:	e00c      	b.n	8000410 <__adddf3+0x184>
 80003f6:	f102 0214 	add.w	r2, r2, #20
 80003fa:	bfd8      	it	le
 80003fc:	f1c2 0c20 	rsble	ip, r2, #32
 8000400:	fa01 f102 	lsl.w	r1, r1, r2
 8000404:	fa20 fc0c 	lsr.w	ip, r0, ip
 8000408:	bfdc      	itt	le
 800040a:	ea41 010c 	orrle.w	r1, r1, ip
 800040e:	4090      	lslle	r0, r2
 8000410:	1ae4      	subs	r4, r4, r3
 8000412:	bfa2      	ittt	ge
 8000414:	eb01 5104 	addge.w	r1, r1, r4, lsl #20
 8000418:	4329      	orrge	r1, r5
 800041a:	bd30      	popge	{r4, r5, pc}
 800041c:	ea6f 0404 	mvn.w	r4, r4
 8000420:	3c1f      	subs	r4, #31
 8000422:	da1c      	bge.n	800045e <__adddf3+0x1d2>
 8000424:	340c      	adds	r4, #12
 8000426:	dc0e      	bgt.n	8000446 <__adddf3+0x1ba>
 8000428:	f104 0414 	add.w	r4, r4, #20
 800042c:	f1c4 0220 	rsb	r2, r4, #32
 8000430:	fa20 f004 	lsr.w	r0, r0, r4
 8000434:	fa01 f302 	lsl.w	r3, r1, r2
 8000438:	ea40 0003 	orr.w	r0, r0, r3
 800043c:	fa21 f304 	lsr.w	r3, r1, r4
 8000440:	ea45 0103 	orr.w	r1, r5, r3
 8000444:	bd30      	pop	{r4, r5, pc}
 8000446:	f1c4 040c 	rsb	r4, r4, #12
 800044a:	f1c4 0220 	rsb	r2, r4, #32
 800044e:	fa20 f002 	lsr.w	r0, r0, r2
 8000452:	fa01 f304 	lsl.w	r3, r1, r4
 8000456:	ea40 0003 	orr.w	r0, r0, r3
 800045a:	4629      	mov	r1, r5
 800045c:	bd30      	pop	{r4, r5, pc}
 800045e:	fa21 f004 	lsr.w	r0, r1, r4
 8000462:	4629      	mov	r1, r5
 8000464:	bd30      	pop	{r4, r5, pc}
 8000466:	f094 0f00 	teq	r4, #0
 800046a:	f483 1380 	eor.w	r3, r3, #1048576	@ 0x100000
 800046e:	bf06      	itte	eq
 8000470:	f481 1180 	eoreq.w	r1, r1, #1048576	@ 0x100000
 8000474:	3401      	addeq	r4, #1
 8000476:	3d01      	subne	r5, #1
 8000478:	e74e      	b.n	8000318 <__adddf3+0x8c>
 800047a:	ea7f 5c64 	mvns.w	ip, r4, asr #21
 800047e:	bf18      	it	ne
 8000480:	ea7f 5c65 	mvnsne.w	ip, r5, asr #21
 8000484:	d029      	beq.n	80004da <__adddf3+0x24e>
 8000486:	ea94 0f05 	teq	r4, r5
 800048a:	bf08      	it	eq
 800048c:	ea90 0f02 	teqeq	r0, r2
 8000490:	d005      	beq.n	800049e <__adddf3+0x212>
 8000492:	ea54 0c00 	orrs.w	ip, r4, r0
 8000496:	bf04      	itt	eq
 8000498:	4619      	moveq	r1, r3
 800049a:	4610      	moveq	r0, r2
 800049c:	bd30      	pop	{r4, r5, pc}
 800049e:	ea91 0f03 	teq	r1, r3
 80004a2:	bf1e      	ittt	ne
 80004a4:	2100      	movne	r1, #0
 80004a6:	2000      	movne	r0, #0
 80004a8:	bd30      	popne	{r4, r5, pc}
 80004aa:	ea5f 5c54 	movs.w	ip, r4, lsr #21
 80004ae:	d105      	bne.n	80004bc <__adddf3+0x230>
 80004b0:	0040      	lsls	r0, r0, #1
 80004b2:	4149      	adcs	r1, r1
 80004b4:	bf28      	it	cs
 80004b6:	f041 4100 	orrcs.w	r1, r1, #2147483648	@ 0x80000000
 80004ba:	bd30      	pop	{r4, r5, pc}
 80004bc:	f514 0480 	adds.w	r4, r4, #4194304	@ 0x400000
 80004c0:	bf3c      	itt	cc
 80004c2:	f501 1180 	addcc.w	r1, r1, #1048576	@ 0x100000
 80004c6:	bd30      	popcc	{r4, r5, pc}
 80004c8:	f001 4500 	and.w	r5, r1, #2147483648	@ 0x80000000
 80004cc:	f045 41fe 	orr.w	r1, r5, #2130706432	@ 0x7f000000
 80004d0:	f441 0170 	orr.w	r1, r1, #15728640	@ 0xf00000
 80004d4:	f04f 0000 	mov.w	r0, #0
 80004d8:	bd30      	pop	{r4, r5, pc}
 80004da:	ea7f 5c64 	mvns.w	ip, r4, asr #21
 80004de:	bf1a      	itte	ne
 80004e0:	4619      	movne	r1, r3
 80004e2:	4610      	movne	r0, r2
 80004e4:	ea7f 5c65 	mvnseq.w	ip, r5, asr #21
 80004e8:	bf1c      	itt	ne
 80004ea:	460b      	movne	r3, r1
 80004ec:	4602      	movne	r2, r0
 80004ee:	ea50 3401 	orrs.w	r4, r0, r1, lsl #12
 80004f2:	bf06      	itte	eq
 80004f4:	ea52 3503 	orrseq.w	r5, r2, r3, lsl #12
 80004f8:	ea91 0f03 	teqeq	r1, r3
 80004fc:	f441 2100 	orrne.w	r1, r1, #524288	@ 0x80000
 8000500:	bd30      	pop	{r4, r5, pc}
 8000502:	bf00      	nop

08000504 <__aeabi_ui2d>:
 8000504:	f090 0f00 	teq	r0, #0
 8000508:	bf04      	itt	eq
 800050a:	2100      	moveq	r1, #0
 800050c:	4770      	bxeq	lr
 800050e:	b530      	push	{r4, r5, lr}
 8000510:	f44f 6480 	mov.w	r4, #1024	@ 0x400
 8000514:	f104 0432 	add.w	r4, r4, #50	@ 0x32
 8000518:	f04f 0500 	mov.w	r5, #0
 800051c:	f04f 0100 	mov.w	r1, #0
 8000520:	e750      	b.n	80003c4 <__adddf3+0x138>
 8000522:	bf00      	nop

08000524 <__aeabi_i2d>:
 8000524:	f090 0f00 	teq	r0, #0
 8000528:	bf04      	itt	eq
 800052a:	2100      	moveq	r1, #0
 800052c:	4770      	bxeq	lr
 800052e:	b530      	push	{r4, r5, lr}
 8000530:	f44f 6480 	mov.w	r4, #1024	@ 0x400
 8000534:	f104 0432 	add.w	r4, r4, #50	@ 0x32
 8000538:	f010 4500 	ands.w	r5, r0, #2147483648	@ 0x80000000
 800053c:	bf48      	it	mi
 800053e:	4240      	negmi	r0, r0
 8000540:	f04f 0100 	mov.w	r1, #0
 8000544:	e73e      	b.n	80003c4 <__adddf3+0x138>
 8000546:	bf00      	nop

08000548 <__aeabi_f2d>:
 8000548:	0042      	lsls	r2, r0, #1
 800054a:	ea4f 01e2 	mov.w	r1, r2, asr #3
 800054e:	ea4f 0131 	mov.w	r1, r1, rrx
 8000552:	ea4f 7002 	mov.w	r0, r2, lsl #28
 8000556:	bf1f      	itttt	ne
 8000558:	f012 437f 	andsne.w	r3, r2, #4278190080	@ 0xff000000
 800055c:	f093 4f7f 	teqne	r3, #4278190080	@ 0xff000000
 8000560:	f081 5160 	eorne.w	r1, r1, #939524096	@ 0x38000000
 8000564:	4770      	bxne	lr
 8000566:	f032 427f 	bics.w	r2, r2, #4278190080	@ 0xff000000
 800056a:	bf08      	it	eq
 800056c:	4770      	bxeq	lr
 800056e:	f093 4f7f 	teq	r3, #4278190080	@ 0xff000000
 8000572:	bf04      	itt	eq
 8000574:	f441 2100 	orreq.w	r1, r1, #524288	@ 0x80000
 8000578:	4770      	bxeq	lr
 800057a:	b530      	push	{r4, r5, lr}
 800057c:	f44f 7460 	mov.w	r4, #896	@ 0x380
 8000580:	f001 4500 	and.w	r5, r1, #2147483648	@ 0x80000000
 8000584:	f021 4100 	bic.w	r1, r1, #2147483648	@ 0x80000000
 8000588:	e71c      	b.n	80003c4 <__adddf3+0x138>
 800058a:	bf00      	nop

0800058c <__aeabi_ul2d>:
 800058c:	ea50 0201 	orrs.w	r2, r0, r1
 8000590:	bf08      	it	eq
 8000592:	4770      	bxeq	lr
 8000594:	b530      	push	{r4, r5, lr}
 8000596:	f04f 0500 	mov.w	r5, #0
 800059a:	e00a      	b.n	80005b2 <__aeabi_l2d+0x16>

0800059c <__aeabi_l2d>:
 800059c:	ea50 0201 	orrs.w	r2, r0, r1
 80005a0:	bf08      	it	eq
 80005a2:	4770      	bxeq	lr
 80005a4:	b530      	push	{r4, r5, lr}
 80005a6:	f011 4500 	ands.w	r5, r1, #2147483648	@ 0x80000000
 80005aa:	d502      	bpl.n	80005b2 <__aeabi_l2d+0x16>
 80005ac:	4240      	negs	r0, r0
 80005ae:	eb61 0141 	sbc.w	r1, r1, r1, lsl #1
 80005b2:	f44f 6480 	mov.w	r4, #1024	@ 0x400
 80005b6:	f104 0432 	add.w	r4, r4, #50	@ 0x32
 80005ba:	ea5f 5c91 	movs.w	ip, r1, lsr #22
 80005be:	f43f aed8 	beq.w	8000372 <__adddf3+0xe6>
 80005c2:	f04f 0203 	mov.w	r2, #3
 80005c6:	ea5f 0cdc 	movs.w	ip, ip, lsr #3
 80005ca:	bf18      	it	ne
 80005cc:	3203      	addne	r2, #3
 80005ce:	ea5f 0cdc 	movs.w	ip, ip, lsr #3
 80005d2:	bf18      	it	ne
 80005d4:	3203      	addne	r2, #3
 80005d6:	eb02 02dc 	add.w	r2, r2, ip, lsr #3
 80005da:	f1c2 0320 	rsb	r3, r2, #32
 80005de:	fa00 fc03 	lsl.w	ip, r0, r3
 80005e2:	fa20 f002 	lsr.w	r0, r0, r2
 80005e6:	fa01 fe03 	lsl.w	lr, r1, r3
 80005ea:	ea40 000e 	orr.w	r0, r0, lr
 80005ee:	fa21 f102 	lsr.w	r1, r1, r2
 80005f2:	4414      	add	r4, r2
 80005f4:	e6bd      	b.n	8000372 <__adddf3+0xe6>
 80005f6:	bf00      	nop

080005f8 <__aeabi_dmul>:
 80005f8:	b570      	push	{r4, r5, r6, lr}
 80005fa:	f04f 0cff 	mov.w	ip, #255	@ 0xff
 80005fe:	f44c 6ce0 	orr.w	ip, ip, #1792	@ 0x700
 8000602:	ea1c 5411 	ands.w	r4, ip, r1, lsr #20
 8000606:	bf1d      	ittte	ne
 8000608:	ea1c 5513 	andsne.w	r5, ip, r3, lsr #20
 800060c:	ea94 0f0c 	teqne	r4, ip
 8000610:	ea95 0f0c 	teqne	r5, ip
 8000614:	f000 f8de 	bleq	80007d4 <__aeabi_dmul+0x1dc>
 8000618:	442c      	add	r4, r5
 800061a:	ea81 0603 	eor.w	r6, r1, r3
 800061e:	ea21 514c 	bic.w	r1, r1, ip, lsl #21
 8000622:	ea23 534c 	bic.w	r3, r3, ip, lsl #21
 8000626:	ea50 3501 	orrs.w	r5, r0, r1, lsl #12
 800062a:	bf18      	it	ne
 800062c:	ea52 3503 	orrsne.w	r5, r2, r3, lsl #12
 8000630:	f441 1180 	orr.w	r1, r1, #1048576	@ 0x100000
 8000634:	f443 1380 	orr.w	r3, r3, #1048576	@ 0x100000
 8000638:	d038      	beq.n	80006ac <__aeabi_dmul+0xb4>
 800063a:	fba0 ce02 	umull	ip, lr, r0, r2
 800063e:	f04f 0500 	mov.w	r5, #0
 8000642:	fbe1 e502 	umlal	lr, r5, r1, r2
 8000646:	f006 4200 	and.w	r2, r6, #2147483648	@ 0x80000000
 800064a:	fbe0 e503 	umlal	lr, r5, r0, r3
 800064e:	f04f 0600 	mov.w	r6, #0
 8000652:	fbe1 5603 	umlal	r5, r6, r1, r3
 8000656:	f09c 0f00 	teq	ip, #0
 800065a:	bf18      	it	ne
 800065c:	f04e 0e01 	orrne.w	lr, lr, #1
 8000660:	f1a4 04ff 	sub.w	r4, r4, #255	@ 0xff
 8000664:	f5b6 7f00 	cmp.w	r6, #512	@ 0x200
 8000668:	f564 7440 	sbc.w	r4, r4, #768	@ 0x300
 800066c:	d204      	bcs.n	8000678 <__aeabi_dmul+0x80>
 800066e:	ea5f 0e4e 	movs.w	lr, lr, lsl #1
 8000672:	416d      	adcs	r5, r5
 8000674:	eb46 0606 	adc.w	r6, r6, r6
 8000678:	ea42 21c6 	orr.w	r1, r2, r6, lsl #11
 800067c:	ea41 5155 	orr.w	r1, r1, r5, lsr #21
 8000680:	ea4f 20c5 	mov.w	r0, r5, lsl #11
 8000684:	ea40 505e 	orr.w	r0, r0, lr, lsr #21
 8000688:	ea4f 2ece 	mov.w	lr, lr, lsl #11
 800068c:	f1b4 0cfd 	subs.w	ip, r4, #253	@ 0xfd
 8000690:	bf88      	it	hi
 8000692:	f5bc 6fe0 	cmphi.w	ip, #1792	@ 0x700
 8000696:	d81e      	bhi.n	80006d6 <__aeabi_dmul+0xde>
 8000698:	f1be 4f00 	cmp.w	lr, #2147483648	@ 0x80000000
 800069c:	bf08      	it	eq
 800069e:	ea5f 0e50 	movseq.w	lr, r0, lsr #1
 80006a2:	f150 0000 	adcs.w	r0, r0, #0
 80006a6:	eb41 5104 	adc.w	r1, r1, r4, lsl #20
 80006aa:	bd70      	pop	{r4, r5, r6, pc}
 80006ac:	f006 4600 	and.w	r6, r6, #2147483648	@ 0x80000000
 80006b0:	ea46 0101 	orr.w	r1, r6, r1
 80006b4:	ea40 0002 	orr.w	r0, r0, r2
 80006b8:	ea81 0103 	eor.w	r1, r1, r3
 80006bc:	ebb4 045c 	subs.w	r4, r4, ip, lsr #1
 80006c0:	bfc2      	ittt	gt
 80006c2:	ebd4 050c 	rsbsgt	r5, r4, ip
 80006c6:	ea41 5104 	orrgt.w	r1, r1, r4, lsl #20
 80006ca:	bd70      	popgt	{r4, r5, r6, pc}
 80006cc:	f441 1180 	orr.w	r1, r1, #1048576	@ 0x100000
 80006d0:	f04f 0e00 	mov.w	lr, #0
 80006d4:	3c01      	subs	r4, #1
 80006d6:	f300 80ab 	bgt.w	8000830 <__aeabi_dmul+0x238>
 80006da:	f114 0f36 	cmn.w	r4, #54	@ 0x36
 80006de:	bfde      	ittt	le
 80006e0:	2000      	movle	r0, #0
 80006e2:	f001 4100 	andle.w	r1, r1, #2147483648	@ 0x80000000
 80006e6:	bd70      	pople	{r4, r5, r6, pc}
 80006e8:	f1c4 0400 	rsb	r4, r4, #0
 80006ec:	3c20      	subs	r4, #32
 80006ee:	da35      	bge.n	800075c <__aeabi_dmul+0x164>
 80006f0:	340c      	adds	r4, #12
 80006f2:	dc1b      	bgt.n	800072c <__aeabi_dmul+0x134>
 80006f4:	f104 0414 	add.w	r4, r4, #20
 80006f8:	f1c4 0520 	rsb	r5, r4, #32
 80006fc:	fa00 f305 	lsl.w	r3, r0, r5
 8000700:	fa20 f004 	lsr.w	r0, r0, r4
 8000704:	fa01 f205 	lsl.w	r2, r1, r5
 8000708:	ea40 0002 	orr.w	r0, r0, r2
 800070c:	f001 4200 	and.w	r2, r1, #2147483648	@ 0x80000000
 8000710:	f021 4100 	bic.w	r1, r1, #2147483648	@ 0x80000000
 8000714:	eb10 70d3 	adds.w	r0, r0, r3, lsr #31
 8000718:	fa21 f604 	lsr.w	r6, r1, r4
 800071c:	eb42 0106 	adc.w	r1, r2, r6
 8000720:	ea5e 0e43 	orrs.w	lr, lr, r3, lsl #1
 8000724:	bf08      	it	eq
 8000726:	ea20 70d3 	biceq.w	r0, r0, r3, lsr #31
 800072a:	bd70      	pop	{r4, r5, r6, pc}
 800072c:	f1c4 040c 	rsb	r4, r4, #12
 8000730:	f1c4 0520 	rsb	r5, r4, #32
 8000734:	fa00 f304 	lsl.w	r3, r0, r4
 8000738:	fa20 f005 	lsr.w	r0, r0, r5
 800073c:	fa01 f204 	lsl.w	r2, r1, r4
 8000740:	ea40 0002 	orr.w	r0, r0, r2
 8000744:	f001 4100 	and.w	r1, r1, #2147483648	@ 0x80000000
 8000748:	eb10 70d3 	adds.w	r0, r0, r3, lsr #31
 800074c:	f141 0100 	adc.w	r1, r1, #0
 8000750:	ea5e 0e43 	orrs.w	lr, lr, r3, lsl #1
 8000754:	bf08      	it	eq
 8000756:	ea20 70d3 	biceq.w	r0, r0, r3, lsr #31
 800075a:	bd70      	pop	{r4, r5, r6, pc}
 800075c:	f1c4 0520 	rsb	r5, r4, #32
 8000760:	fa00 f205 	lsl.w	r2, r0, r5
 8000764:	ea4e 0e02 	orr.w	lr, lr, r2
 8000768:	fa20 f304 	lsr.w	r3, r0, r4
 800076c:	fa01 f205 	lsl.w	r2, r1, r5
 8000770:	ea43 0302 	orr.w	r3, r3, r2
 8000774:	fa21 f004 	lsr.w	r0, r1, r4
 8000778:	f001 4100 	and.w	r1, r1, #2147483648	@ 0x80000000
 800077c:	fa21 f204 	lsr.w	r2, r1, r4
 8000780:	ea20 0002 	bic.w	r0, r0, r2
 8000784:	eb00 70d3 	add.w	r0, r0, r3, lsr #31
 8000788:	ea5e 0e43 	orrs.w	lr, lr, r3, lsl #1
 800078c:	bf08      	it	eq
 800078e:	ea20 70d3 	biceq.w	r0, r0, r3, lsr #31
 8000792:	bd70      	pop	{r4, r5, r6, pc}
 8000794:	f094 0f00 	teq	r4, #0
 8000798:	d10f      	bne.n	80007ba <__aeabi_dmul+0x1c2>
 800079a:	f001 4600 	and.w	r6, r1, #2147483648	@ 0x80000000
 800079e:	0040      	lsls	r0, r0, #1
 80007a0:	eb41 0101 	adc.w	r1, r1, r1
 80007a4:	f411 1f80 	tst.w	r1, #1048576	@ 0x100000
 80007a8:	bf08      	it	eq
 80007aa:	3c01      	subeq	r4, #1
 80007ac:	d0f7      	beq.n	800079e <__aeabi_dmul+0x1a6>
 80007ae:	ea41 0106 	orr.w	r1, r1, r6
 80007b2:	f095 0f00 	teq	r5, #0
 80007b6:	bf18      	it	ne
 80007b8:	4770      	bxne	lr
 80007ba:	f003 4600 	and.w	r6, r3, #2147483648	@ 0x80000000
 80007be:	0052      	lsls	r2, r2, #1
 80007c0:	eb43 0303 	adc.w	r3, r3, r3
 80007c4:	f413 1f80 	tst.w	r3, #1048576	@ 0x100000
 80007c8:	bf08      	it	eq
 80007ca:	3d01      	subeq	r5, #1
 80007cc:	d0f7      	beq.n	80007be <__aeabi_dmul+0x1c6>
 80007ce:	ea43 0306 	orr.w	r3, r3, r6
 80007d2:	4770      	bx	lr
 80007d4:	ea94 0f0c 	teq	r4, ip
 80007d8:	ea0c 5513 	and.w	r5, ip, r3, lsr #20
 80007dc:	bf18      	it	ne
 80007de:	ea95 0f0c 	teqne	r5, ip
 80007e2:	d00c      	beq.n	80007fe <__aeabi_dmul+0x206>
 80007e4:	ea50 0641 	orrs.w	r6, r0, r1, lsl #1
 80007e8:	bf18      	it	ne
 80007ea:	ea52 0643 	orrsne.w	r6, r2, r3, lsl #1
 80007ee:	d1d1      	bne.n	8000794 <__aeabi_dmul+0x19c>
 80007f0:	ea81 0103 	eor.w	r1, r1, r3
 80007f4:	f001 4100 	and.w	r1, r1, #2147483648	@ 0x80000000
 80007f8:	f04f 0000 	mov.w	r0, #0
 80007fc:	bd70      	pop	{r4, r5, r6, pc}
 80007fe:	ea50 0641 	orrs.w	r6, r0, r1, lsl #1
 8000802:	bf06      	itte	eq
 8000804:	4610      	moveq	r0, r2
 8000806:	4619      	moveq	r1, r3
 8000808:	ea52 0643 	orrsne.w	r6, r2, r3, lsl #1
 800080c:	d019      	beq.n	8000842 <__aeabi_dmul+0x24a>
 800080e:	ea94 0f0c 	teq	r4, ip
 8000812:	d102      	bne.n	800081a <__aeabi_dmul+0x222>
 8000814:	ea50 3601 	orrs.w	r6, r0, r1, lsl #12
 8000818:	d113      	bne.n	8000842 <__aeabi_dmul+0x24a>
 800081a:	ea95 0f0c 	teq	r5, ip
 800081e:	d105      	bne.n	800082c <__aeabi_dmul+0x234>
 8000820:	ea52 3603 	orrs.w	r6, r2, r3, lsl #12
 8000824:	bf1c      	itt	ne
 8000826:	4610      	movne	r0, r2
 8000828:	4619      	movne	r1, r3
 800082a:	d10a      	bne.n	8000842 <__aeabi_dmul+0x24a>
 800082c:	ea81 0103 	eor.w	r1, r1, r3
 8000830:	f001 4100 	and.w	r1, r1, #2147483648	@ 0x80000000
 8000834:	f041 41fe 	orr.w	r1, r1, #2130706432	@ 0x7f000000
 8000838:	f441 0170 	orr.w	r1, r1, #15728640	@ 0xf00000
 800083c:	f04f 0000 	mov.w	r0, #0
 8000840:	bd70      	pop	{r4, r5, r6, pc}
 8000842:	f041 41fe 	orr.w	r1, r1, #2130706432	@ 0x7f000000
 8000846:	f441 0178 	orr.w	r1, r1, #16252928	@ 0xf80000
 800084a:	bd70      	pop	{r4, r5, r6, pc}

0800084c <__aeabi_ddiv>:
 800084c:	b570      	push	{r4, r5, r6, lr}
 800084e:	f04f 0cff 	mov.w	ip, #255	@ 0xff
 8000852:	f44c 6ce0 	orr.w	ip, ip, #1792	@ 0x700
 8000856:	ea1c 5411 	ands.w	r4, ip, r1, lsr #20
 800085a:	bf1d      	ittte	ne
 800085c:	ea1c 5513 	andsne.w	r5, ip, r3, lsr #20
 8000860:	ea94 0f0c 	teqne	r4, ip
 8000864:	ea95 0f0c 	teqne	r5, ip
 8000868:	f000 f8a7 	bleq	80009ba <__aeabi_ddiv+0x16e>
 800086c:	eba4 0405 	sub.w	r4, r4, r5
 8000870:	ea81 0e03 	eor.w	lr, r1, r3
 8000874:	ea52 3503 	orrs.w	r5, r2, r3, lsl #12
 8000878:	ea4f 3101 	mov.w	r1, r1, lsl #12
 800087c:	f000 8088 	beq.w	8000990 <__aeabi_ddiv+0x144>
 8000880:	ea4f 3303 	mov.w	r3, r3, lsl #12
 8000884:	f04f 5580 	mov.w	r5, #268435456	@ 0x10000000
 8000888:	ea45 1313 	orr.w	r3, r5, r3, lsr #4
 800088c:	ea43 6312 	orr.w	r3, r3, r2, lsr #24
 8000890:	ea4f 2202 	mov.w	r2, r2, lsl #8
 8000894:	ea45 1511 	orr.w	r5, r5, r1, lsr #4
 8000898:	ea45 6510 	orr.w	r5, r5, r0, lsr #24
 800089c:	ea4f 2600 	mov.w	r6, r0, lsl #8
 80008a0:	f00e 4100 	and.w	r1, lr, #2147483648	@ 0x80000000
 80008a4:	429d      	cmp	r5, r3
 80008a6:	bf08      	it	eq
 80008a8:	4296      	cmpeq	r6, r2
 80008aa:	f144 04fd 	adc.w	r4, r4, #253	@ 0xfd
 80008ae:	f504 7440 	add.w	r4, r4, #768	@ 0x300
 80008b2:	d202      	bcs.n	80008ba <__aeabi_ddiv+0x6e>
 80008b4:	085b      	lsrs	r3, r3, #1
 80008b6:	ea4f 0232 	mov.w	r2, r2, rrx
 80008ba:	1ab6      	subs	r6, r6, r2
 80008bc:	eb65 0503 	sbc.w	r5, r5, r3
 80008c0:	085b      	lsrs	r3, r3, #1
 80008c2:	ea4f 0232 	mov.w	r2, r2, rrx
 80008c6:	f44f 1080 	mov.w	r0, #1048576	@ 0x100000
 80008ca:	f44f 2c00 	mov.w	ip, #524288	@ 0x80000
 80008ce:	ebb6 0e02 	subs.w	lr, r6, r2
 80008d2:	eb75 0e03 	sbcs.w	lr, r5, r3
 80008d6:	bf22      	ittt	cs
 80008d8:	1ab6      	subcs	r6, r6, r2
 80008da:	4675      	movcs	r5, lr
 80008dc:	ea40 000c 	orrcs.w	r0, r0, ip
 80008e0:	085b      	lsrs	r3, r3, #1
 80008e2:	ea4f 0232 	mov.w	r2, r2, rrx
 80008e6:	ebb6 0e02 	subs.w	lr, r6, r2
 80008ea:	eb75 0e03 	sbcs.w	lr, r5, r3
 80008ee:	bf22      	ittt	cs
 80008f0:	1ab6      	subcs	r6, r6, r2
 80008f2:	4675      	movcs	r5, lr
 80008f4:	ea40 005c 	orrcs.w	r0, r0, ip, lsr #1
 80008f8:	085b      	lsrs	r3, r3, #1
 80008fa:	ea4f 0232 	mov.w	r2, r2, rrx
 80008fe:	ebb6 0e02 	subs.w	lr, r6, r2
 8000902:	eb75 0e03 	sbcs.w	lr, r5, r3
 8000906:	bf22      	ittt	cs
 8000908:	1ab6      	subcs	r6, r6, r2
 800090a:	4675      	movcs	r5, lr
 800090c:	ea40 009c 	orrcs.w	r0, r0, ip, lsr #2
 8000910:	085b      	lsrs	r3, r3, #1
 8000912:	ea4f 0232 	mov.w	r2, r2, rrx
 8000916:	ebb6 0e02 	subs.w	lr, r6, r2
 800091a:	eb75 0e03 	sbcs.w	lr, r5, r3
 800091e:	bf22      	ittt	cs
 8000920:	1ab6      	subcs	r6, r6, r2
 8000922:	4675      	movcs	r5, lr
 8000924:	ea40 00dc 	orrcs.w	r0, r0, ip, lsr #3
 8000928:	ea55 0e06 	orrs.w	lr, r5, r6
 800092c:	d018      	beq.n	8000960 <__aeabi_ddiv+0x114>
 800092e:	ea4f 1505 	mov.w	r5, r5, lsl #4
 8000932:	ea45 7516 	orr.w	r5, r5, r6, lsr #28
 8000936:	ea4f 1606 	mov.w	r6, r6, lsl #4
 800093a:	ea4f 03c3 	mov.w	r3, r3, lsl #3
 800093e:	ea43 7352 	orr.w	r3, r3, r2, lsr #29
 8000942:	ea4f 02c2 	mov.w	r2, r2, lsl #3
 8000946:	ea5f 1c1c 	movs.w	ip, ip, lsr #4
 800094a:	d1c0      	bne.n	80008ce <__aeabi_ddiv+0x82>
 800094c:	f411 1f80 	tst.w	r1, #1048576	@ 0x100000
 8000950:	d10b      	bne.n	800096a <__aeabi_ddiv+0x11e>
 8000952:	ea41 0100 	orr.w	r1, r1, r0
 8000956:	f04f 0000 	mov.w	r0, #0
 800095a:	f04f 4c00 	mov.w	ip, #2147483648	@ 0x80000000
 800095e:	e7b6      	b.n	80008ce <__aeabi_ddiv+0x82>
 8000960:	f411 1f80 	tst.w	r1, #1048576	@ 0x100000
 8000964:	bf04      	itt	eq
 8000966:	4301      	orreq	r1, r0
 8000968:	2000      	moveq	r0, #0
 800096a:	f1b4 0cfd 	subs.w	ip, r4, #253	@ 0xfd
 800096e:	bf88      	it	hi
 8000970:	f5bc 6fe0 	cmphi.w	ip, #1792	@ 0x700
 8000974:	f63f aeaf 	bhi.w	80006d6 <__aeabi_dmul+0xde>
 8000978:	ebb5 0c03 	subs.w	ip, r5, r3
 800097c:	bf04      	itt	eq
 800097e:	ebb6 0c02 	subseq.w	ip, r6, r2
 8000982:	ea5f 0c50 	movseq.w	ip, r0, lsr #1
 8000986:	f150 0000 	adcs.w	r0, r0, #0
 800098a:	eb41 5104 	adc.w	r1, r1, r4, lsl #20
 800098e:	bd70      	pop	{r4, r5, r6, pc}
 8000990:	f00e 4e00 	and.w	lr, lr, #2147483648	@ 0x80000000
 8000994:	ea4e 3111 	orr.w	r1, lr, r1, lsr #12
 8000998:	eb14 045c 	adds.w	r4, r4, ip, lsr #1
 800099c:	bfc2      	ittt	gt
 800099e:	ebd4 050c 	rsbsgt	r5, r4, ip
 80009a2:	ea41 5104 	orrgt.w	r1, r1, r4, lsl #20
 80009a6:	bd70      	popgt	{r4, r5, r6, pc}
 80009a8:	f441 1180 	orr.w	r1, r1, #1048576	@ 0x100000
 80009ac:	f04f 0e00 	mov.w	lr, #0
 80009b0:	3c01      	subs	r4, #1
 80009b2:	e690      	b.n	80006d6 <__aeabi_dmul+0xde>
 80009b4:	ea45 0e06 	orr.w	lr, r5, r6
 80009b8:	e68d      	b.n	80006d6 <__aeabi_dmul+0xde>
 80009ba:	ea0c 5513 	and.w	r5, ip, r3, lsr #20
 80009be:	ea94 0f0c 	teq	r4, ip
 80009c2:	bf08      	it	eq
 80009c4:	ea95 0f0c 	teqeq	r5, ip
 80009c8:	f43f af3b 	beq.w	8000842 <__aeabi_dmul+0x24a>
 80009cc:	ea94 0f0c 	teq	r4, ip
 80009d0:	d10a      	bne.n	80009e8 <__aeabi_ddiv+0x19c>
 80009d2:	ea50 3401 	orrs.w	r4, r0, r1, lsl #12
 80009d6:	f47f af34 	bne.w	8000842 <__aeabi_dmul+0x24a>
 80009da:	ea95 0f0c 	teq	r5, ip
 80009de:	f47f af25 	bne.w	800082c <__aeabi_dmul+0x234>
 80009e2:	4610      	mov	r0, r2
 80009e4:	4619      	mov	r1, r3
 80009e6:	e72c      	b.n	8000842 <__aeabi_dmul+0x24a>
 80009e8:	ea95 0f0c 	teq	r5, ip
 80009ec:	d106      	bne.n	80009fc <__aeabi_ddiv+0x1b0>
 80009ee:	ea52 3503 	orrs.w	r5, r2, r3, lsl #12
 80009f2:	f43f aefd 	beq.w	80007f0 <__aeabi_dmul+0x1f8>
 80009f6:	4610      	mov	r0, r2
 80009f8:	4619      	mov	r1, r3
 80009fa:	e722      	b.n	8000842 <__aeabi_dmul+0x24a>
 80009fc:	ea50 0641 	orrs.w	r6, r0, r1, lsl #1
 8000a00:	bf18      	it	ne
 8000a02:	ea52 0643 	orrsne.w	r6, r2, r3, lsl #1
 8000a06:	f47f aec5 	bne.w	8000794 <__aeabi_dmul+0x19c>
 8000a0a:	ea50 0441 	orrs.w	r4, r0, r1, lsl #1
 8000a0e:	f47f af0d 	bne.w	800082c <__aeabi_dmul+0x234>
 8000a12:	ea52 0543 	orrs.w	r5, r2, r3, lsl #1
 8000a16:	f47f aeeb 	bne.w	80007f0 <__aeabi_dmul+0x1f8>
 8000a1a:	e712      	b.n	8000842 <__aeabi_dmul+0x24a>

08000a1c <__aeabi_d2f>:
 8000a1c:	ea4f 0241 	mov.w	r2, r1, lsl #1
 8000a20:	f1b2 43e0 	subs.w	r3, r2, #1879048192	@ 0x70000000
 8000a24:	bf24      	itt	cs
 8000a26:	f5b3 1c00 	subscs.w	ip, r3, #2097152	@ 0x200000
 8000a2a:	f1dc 5cfe 	rsbscs	ip, ip, #532676608	@ 0x1fc00000
 8000a2e:	d90d      	bls.n	8000a4c <__aeabi_d2f+0x30>
 8000a30:	f001 4c00 	and.w	ip, r1, #2147483648	@ 0x80000000
 8000a34:	ea4f 02c0 	mov.w	r2, r0, lsl #3
 8000a38:	ea4c 7050 	orr.w	r0, ip, r0, lsr #29
 8000a3c:	f1b2 4f00 	cmp.w	r2, #2147483648	@ 0x80000000
 8000a40:	eb40 0083 	adc.w	r0, r0, r3, lsl #2
 8000a44:	bf08      	it	eq
 8000a46:	f020 0001 	biceq.w	r0, r0, #1
 8000a4a:	4770      	bx	lr
 8000a4c:	f011 4f80 	tst.w	r1, #1073741824	@ 0x40000000
 8000a50:	d121      	bne.n	8000a96 <__aeabi_d2f+0x7a>
 8000a52:	f113 7238 	adds.w	r2, r3, #48234496	@ 0x2e00000
 8000a56:	bfbc      	itt	lt
 8000a58:	f001 4000 	andlt.w	r0, r1, #2147483648	@ 0x80000000
 8000a5c:	4770      	bxlt	lr
 8000a5e:	f441 1180 	orr.w	r1, r1, #1048576	@ 0x100000
 8000a62:	ea4f 5252 	mov.w	r2, r2, lsr #21
 8000a66:	f1c2 0218 	rsb	r2, r2, #24
 8000a6a:	f1c2 0c20 	rsb	ip, r2, #32
 8000a6e:	fa10 f30c 	lsls.w	r3, r0, ip
 8000a72:	fa20 f002 	lsr.w	r0, r0, r2
 8000a76:	bf18      	it	ne
 8000a78:	f040 0001 	orrne.w	r0, r0, #1
 8000a7c:	ea4f 23c1 	mov.w	r3, r1, lsl #11
 8000a80:	ea4f 23d3 	mov.w	r3, r3, lsr #11
 8000a84:	fa03 fc0c 	lsl.w	ip, r3, ip
 8000a88:	ea40 000c 	orr.w	r0, r0, ip
 8000a8c:	fa23 f302 	lsr.w	r3, r3, r2
 8000a90:	ea4f 0343 	mov.w	r3, r3, lsl #1
 8000a94:	e7cc      	b.n	8000a30 <__aeabi_d2f+0x14>
 8000a96:	ea7f 5362 	mvns.w	r3, r2, asr #21
 8000a9a:	d107      	bne.n	8000aac <__aeabi_d2f+0x90>
 8000a9c:	ea50 3301 	orrs.w	r3, r0, r1, lsl #12
 8000aa0:	bf1e      	ittt	ne
 8000aa2:	f04f 40fe 	movne.w	r0, #2130706432	@ 0x7f000000
 8000aa6:	f440 0040 	orrne.w	r0, r0, #12582912	@ 0xc00000
 8000aaa:	4770      	bxne	lr
 8000aac:	f001 4000 	and.w	r0, r1, #2147483648	@ 0x80000000
 8000ab0:	f040 40fe 	orr.w	r0, r0, #2130706432	@ 0x7f000000
 8000ab4:	f440 0000 	orr.w	r0, r0, #8388608	@ 0x800000
 8000ab8:	4770      	bx	lr
 8000aba:	bf00      	nop

08000abc <MX_ADC1_Init>:
 8000abc:	b510      	push	{r4, lr}
 8000abe:	b086      	sub	sp, #24
 8000ac0:	2218      	movs	r2, #24
 8000ac2:	2100      	movs	r1, #0
 8000ac4:	4668      	mov	r0, sp
 8000ac6:	f002 ff85 	bl	80039d4 <memset>
 8000aca:	481d      	ldr	r0, [pc, #116]	@ (8000b40 <MX_ADC1_Init+0x84>)
 8000acc:	f44f 7210 	mov.w	r2, #576	@ 0x240
 8000ad0:	f44f 6180 	mov.w	r1, #1024	@ 0x400
 8000ad4:	e9c0 210a 	strd	r2, r1, [r0, #40]	@ 0x28
 8000ad8:	2202      	movs	r2, #2
 8000ada:	2300      	movs	r3, #0
 8000adc:	61c2      	str	r2, [r0, #28]
 8000ade:	f04f 42a0 	mov.w	r2, #1342177280	@ 0x50000000
 8000ae2:	2401      	movs	r4, #1
 8000ae4:	e9c0 2300 	strd	r2, r3, [r0]
 8000ae8:	2208      	movs	r2, #8
 8000aea:	e9c0 3302 	strd	r3, r3, [r0, #8]
 8000aee:	f880 3020 	strb.w	r3, [r0, #32]
 8000af2:	f880 4030 	strb.w	r4, [r0, #48]	@ 0x30
 8000af6:	6104      	str	r4, [r0, #16]
 8000af8:	6142      	str	r2, [r0, #20]
 8000afa:	8303      	strh	r3, [r0, #24]
 8000afc:	6343      	str	r3, [r0, #52]	@ 0x34
 8000afe:	f000 fe05 	bl	800170c <HAL_ADC_Init>
 8000b02:	b108      	cbz	r0, 8000b08 <MX_ADC1_Init+0x4c>
 8000b04:	f000 fa3c 	bl	8000f80 <Error_Handler>
 8000b08:	2300      	movs	r3, #0
 8000b0a:	2205      	movs	r2, #5
 8000b0c:	480c      	ldr	r0, [pc, #48]	@ (8000b40 <MX_ADC1_Init+0x84>)
 8000b0e:	4669      	mov	r1, sp
 8000b10:	e9cd 4400 	strd	r4, r4, [sp]
 8000b14:	e9cd 2302 	strd	r2, r3, [sp, #8]
 8000b18:	e9cd 3304 	strd	r3, r3, [sp, #16]
 8000b1c:	f001 f86a 	bl	8001bf4 <HAL_ADC_ConfigChannel>
 8000b20:	b108      	cbz	r0, 8000b26 <MX_ADC1_Init+0x6a>
 8000b22:	f000 fa2d 	bl	8000f80 <Error_Handler>
 8000b26:	2302      	movs	r3, #2
 8000b28:	4805      	ldr	r0, [pc, #20]	@ (8000b40 <MX_ADC1_Init+0x84>)
 8000b2a:	4669      	mov	r1, sp
 8000b2c:	e9cd 3300 	strd	r3, r3, [sp]
 8000b30:	f001 f860 	bl	8001bf4 <HAL_ADC_ConfigChannel>
 8000b34:	b108      	cbz	r0, 8000b3a <MX_ADC1_Init+0x7e>
 8000b36:	f000 fa23 	bl	8000f80 <Error_Handler>
 8000b3a:	b006      	add	sp, #24
 8000b3c:	bd10      	pop	{r4, pc}
 8000b3e:	bf00      	nop
 8000b40:	200000d0 	.word	0x200000d0

08000b44 <HAL_ADC_MspInit>:
 8000b44:	b530      	push	{r4, r5, lr}
 8000b46:	4605      	mov	r5, r0
 8000b48:	b089      	sub	sp, #36	@ 0x24
 8000b4a:	2214      	movs	r2, #20
 8000b4c:	2100      	movs	r1, #0
 8000b4e:	a803      	add	r0, sp, #12
 8000b50:	f002 ff40 	bl	80039d4 <memset>
 8000b54:	682b      	ldr	r3, [r5, #0]
 8000b56:	f1b3 4fa0 	cmp.w	r3, #1342177280	@ 0x50000000
 8000b5a:	d13e      	bne.n	8000bda <HAL_ADC_MspInit+0x96>
 8000b5c:	f103 4370 	add.w	r3, r3, #4026531840	@ 0xf0000000
 8000b60:	f503 3304 	add.w	r3, r3, #135168	@ 0x21000
 8000b64:	a903      	add	r1, sp, #12
 8000b66:	695a      	ldr	r2, [r3, #20]
 8000b68:	4c1d      	ldr	r4, [pc, #116]	@ (8000be0 <HAL_ADC_MspInit+0x9c>)
 8000b6a:	f042 5280 	orr.w	r2, r2, #268435456	@ 0x10000000
 8000b6e:	615a      	str	r2, [r3, #20]
 8000b70:	695a      	ldr	r2, [r3, #20]
 8000b72:	f002 5280 	and.w	r2, r2, #268435456	@ 0x10000000
 8000b76:	9201      	str	r2, [sp, #4]
 8000b78:	9a01      	ldr	r2, [sp, #4]
 8000b7a:	695a      	ldr	r2, [r3, #20]
 8000b7c:	f442 3200 	orr.w	r2, r2, #131072	@ 0x20000
 8000b80:	615a      	str	r2, [r3, #20]
 8000b82:	695b      	ldr	r3, [r3, #20]
 8000b84:	f403 3300 	and.w	r3, r3, #131072	@ 0x20000
 8000b88:	9302      	str	r3, [sp, #8]
 8000b8a:	9b02      	ldr	r3, [sp, #8]
 8000b8c:	f04f 4090 	mov.w	r0, #1207959552	@ 0x48000000
 8000b90:	2303      	movs	r3, #3
 8000b92:	e9cd 3303 	strd	r3, r3, [sp, #12]
 8000b96:	f001 fac9 	bl	800212c <HAL_GPIO_Init>
 8000b9a:	4a12      	ldr	r2, [pc, #72]	@ (8000be4 <HAL_ADC_MspInit+0xa0>)
 8000b9c:	2300      	movs	r3, #0
 8000b9e:	e9c4 2300 	strd	r2, r3, [r4]
 8000ba2:	2180      	movs	r1, #128	@ 0x80
 8000ba4:	f44f 7280 	mov.w	r2, #256	@ 0x100
 8000ba8:	f44f 6000 	mov.w	r0, #2048	@ 0x800
 8000bac:	e9c4 1203 	strd	r1, r2, [r4, #12]
 8000bb0:	2220      	movs	r2, #32
 8000bb2:	e9c4 0205 	strd	r0, r2, [r4, #20]
 8000bb6:	4620      	mov	r0, r4
 8000bb8:	60a3      	str	r3, [r4, #8]
 8000bba:	61e3      	str	r3, [r4, #28]
 8000bbc:	f001 f9ca 	bl	8001f54 <HAL_DMA_Init>
 8000bc0:	b108      	cbz	r0, 8000bc6 <HAL_ADC_MspInit+0x82>
 8000bc2:	f000 f9dd 	bl	8000f80 <Error_Handler>
 8000bc6:	2200      	movs	r2, #0
 8000bc8:	2012      	movs	r0, #18
 8000bca:	63ac      	str	r4, [r5, #56]	@ 0x38
 8000bcc:	4611      	mov	r1, r2
 8000bce:	6265      	str	r5, [r4, #36]	@ 0x24
 8000bd0:	f001 f96c 	bl	8001eac <HAL_NVIC_SetPriority>
 8000bd4:	2012      	movs	r0, #18
 8000bd6:	f001 f99b 	bl	8001f10 <HAL_NVIC_EnableIRQ>
 8000bda:	b009      	add	sp, #36	@ 0x24
 8000bdc:	bd30      	pop	{r4, r5, pc}
 8000bde:	bf00      	nop
 8000be0:	2000008c 	.word	0x2000008c
 8000be4:	40020008 	.word	0x40020008

08000be8 <MX_DMA_Init>:
 8000be8:	4b12      	ldr	r3, [pc, #72]	@ (8000c34 <MX_DMA_Init+0x4c>)
 8000bea:	b507      	push	{r0, r1, r2, lr}
 8000bec:	695a      	ldr	r2, [r3, #20]
 8000bee:	f042 0201 	orr.w	r2, r2, #1
 8000bf2:	615a      	str	r2, [r3, #20]
 8000bf4:	695b      	ldr	r3, [r3, #20]
 8000bf6:	2200      	movs	r2, #0
 8000bf8:	f003 0301 	and.w	r3, r3, #1
 8000bfc:	4611      	mov	r1, r2
 8000bfe:	9301      	str	r3, [sp, #4]
 8000c00:	200b      	movs	r0, #11
 8000c02:	9b01      	ldr	r3, [sp, #4]
 8000c04:	f001 f952 	bl	8001eac <HAL_NVIC_SetPriority>
 8000c08:	200b      	movs	r0, #11
 8000c0a:	f001 f981 	bl	8001f10 <HAL_NVIC_EnableIRQ>
 8000c0e:	2200      	movs	r2, #0
 8000c10:	4611      	mov	r1, r2
 8000c12:	200e      	movs	r0, #14
 8000c14:	f001 f94a 	bl	8001eac <HAL_NVIC_SetPriority>
 8000c18:	200e      	movs	r0, #14
 8000c1a:	f001 f979 	bl	8001f10 <HAL_NVIC_EnableIRQ>
 8000c1e:	2200      	movs	r2, #0
 8000c20:	4611      	mov	r1, r2
 8000c22:	200f      	movs	r0, #15
 8000c24:	f001 f942 	bl	8001eac <HAL_NVIC_SetPriority>
 8000c28:	200f      	movs	r0, #15
 8000c2a:	b003      	add	sp, #12
 8000c2c:	f85d eb04 	ldr.w	lr, [sp], #4
 8000c30:	f001 b96e 	b.w	8001f10 <HAL_NVIC_EnableIRQ>
 8000c34:	40021000 	.word	0x40021000

08000c38 <MX_GPIO_Init>:
 8000c38:	b570      	push	{r4, r5, r6, lr}
 8000c3a:	b088      	sub	sp, #32
 8000c3c:	2214      	movs	r2, #20
 8000c3e:	2100      	movs	r1, #0
 8000c40:	a803      	add	r0, sp, #12
 8000c42:	f002 fec7 	bl	80039d4 <memset>
 8000c46:	4b20      	ldr	r3, [pc, #128]	@ (8000cc8 <MX_GPIO_Init+0x90>)
 8000c48:	4d20      	ldr	r5, [pc, #128]	@ (8000ccc <MX_GPIO_Init+0x94>)
 8000c4a:	695a      	ldr	r2, [r3, #20]
 8000c4c:	f442 3200 	orr.w	r2, r2, #131072	@ 0x20000
 8000c50:	615a      	str	r2, [r3, #20]
 8000c52:	695a      	ldr	r2, [r3, #20]
 8000c54:	f402 3200 	and.w	r2, r2, #131072	@ 0x20000
 8000c58:	9201      	str	r2, [sp, #4]
 8000c5a:	9a01      	ldr	r2, [sp, #4]
 8000c5c:	695a      	ldr	r2, [r3, #20]
 8000c5e:	f442 2280 	orr.w	r2, r2, #262144	@ 0x40000
 8000c62:	615a      	str	r2, [r3, #20]
 8000c64:	695b      	ldr	r3, [r3, #20]
 8000c66:	f403 2380 	and.w	r3, r3, #262144	@ 0x40000
 8000c6a:	9302      	str	r3, [sp, #8]
 8000c6c:	2200      	movs	r2, #0
 8000c6e:	f248 0130 	movw	r1, #32816	@ 0x8030
 8000c72:	f04f 4090 	mov.w	r0, #1207959552	@ 0x48000000
 8000c76:	9b02      	ldr	r3, [sp, #8]
 8000c78:	f001 fb16 	bl	80022a8 <HAL_GPIO_WritePin>
 8000c7c:	2200      	movs	r2, #0
 8000c7e:	4628      	mov	r0, r5
 8000c80:	2180      	movs	r1, #128	@ 0x80
 8000c82:	f001 fb11 	bl	80022a8 <HAL_GPIO_WritePin>
 8000c86:	2400      	movs	r4, #0
 8000c88:	f248 0330 	movw	r3, #32816	@ 0x8030
 8000c8c:	2601      	movs	r6, #1
 8000c8e:	a903      	add	r1, sp, #12
 8000c90:	f04f 4090 	mov.w	r0, #1207959552	@ 0x48000000
 8000c94:	e9cd 3603 	strd	r3, r6, [sp, #12]
 8000c98:	e9cd 4405 	strd	r4, r4, [sp, #20]
 8000c9c:	f001 fa46 	bl	800212c <HAL_GPIO_Init>
 8000ca0:	23c0      	movs	r3, #192	@ 0xc0
 8000ca2:	a903      	add	r1, sp, #12
 8000ca4:	f04f 4090 	mov.w	r0, #1207959552	@ 0x48000000
 8000ca8:	e9cd 3403 	strd	r3, r4, [sp, #12]
 8000cac:	9405      	str	r4, [sp, #20]
 8000cae:	f001 fa3d 	bl	800212c <HAL_GPIO_Init>
 8000cb2:	2380      	movs	r3, #128	@ 0x80
 8000cb4:	a903      	add	r1, sp, #12
 8000cb6:	4628      	mov	r0, r5
 8000cb8:	e9cd 3603 	strd	r3, r6, [sp, #12]
 8000cbc:	e9cd 4405 	strd	r4, r4, [sp, #20]
 8000cc0:	f001 fa34 	bl	800212c <HAL_GPIO_Init>
 8000cc4:	b008      	add	sp, #32
 8000cc6:	bd70      	pop	{r4, r5, r6, pc}
 8000cc8:	40021000 	.word	0x40021000
 8000ccc:	48000400 	.word	0x48000400

08000cd0 <SystemClock_Config>:
 8000cd0:	b510      	push	{r4, lr}
 8000cd2:	b09c      	sub	sp, #112	@ 0x70
 8000cd4:	2220      	movs	r2, #32
 8000cd6:	2100      	movs	r1, #0
 8000cd8:	a807      	add	r0, sp, #28
 8000cda:	f002 fe7b 	bl	80039d4 <memset>
 8000cde:	2214      	movs	r2, #20
 8000ce0:	2100      	movs	r1, #0
 8000ce2:	a801      	add	r0, sp, #4
 8000ce4:	f002 fe76 	bl	80039d4 <memset>
 8000ce8:	2230      	movs	r2, #48	@ 0x30
 8000cea:	2100      	movs	r1, #0
 8000cec:	a810      	add	r0, sp, #64	@ 0x40
 8000cee:	f002 fe71 	bl	80039d4 <memset>
 8000cf2:	2310      	movs	r3, #16
 8000cf4:	2201      	movs	r2, #1
 8000cf6:	2402      	movs	r4, #2
 8000cf8:	e9cd 230a 	strd	r2, r3, [sp, #40]	@ 0x28
 8000cfc:	a806      	add	r0, sp, #24
 8000cfe:	f44f 1360 	mov.w	r3, #3670016	@ 0x380000
 8000d02:	9406      	str	r4, [sp, #24]
 8000d04:	940d      	str	r4, [sp, #52]	@ 0x34
 8000d06:	930f      	str	r3, [sp, #60]	@ 0x3c
 8000d08:	f001 fadc 	bl	80022c4 <HAL_RCC_OscConfig>
 8000d0c:	b108      	cbz	r0, 8000d12 <SystemClock_Config+0x42>
 8000d0e:	b672      	cpsid	i
 8000d10:	e7fe      	b.n	8000d10 <SystemClock_Config+0x40>
 8000d12:	230f      	movs	r3, #15
 8000d14:	e9cd 3401 	strd	r3, r4, [sp, #4]
 8000d18:	f44f 6380 	mov.w	r3, #1024	@ 0x400
 8000d1c:	e9cd 3004 	strd	r3, r0, [sp, #16]
 8000d20:	9003      	str	r0, [sp, #12]
 8000d22:	4621      	mov	r1, r4
 8000d24:	a801      	add	r0, sp, #4
 8000d26:	f001 fd4d 	bl	80027c4 <HAL_RCC_ClockConfig>
 8000d2a:	b108      	cbz	r0, 8000d30 <SystemClock_Config+0x60>
 8000d2c:	b672      	cpsid	i
 8000d2e:	e7fe      	b.n	8000d2e <SystemClock_Config+0x5e>
 8000d30:	4b07      	ldr	r3, [pc, #28]	@ (8000d50 <SystemClock_Config+0x80>)
 8000d32:	9310      	str	r3, [sp, #64]	@ 0x40
 8000d34:	e9cd 0018 	strd	r0, r0, [sp, #96]	@ 0x60
 8000d38:	9012      	str	r0, [sp, #72]	@ 0x48
 8000d3a:	f44f 7380 	mov.w	r3, #256	@ 0x100
 8000d3e:	a810      	add	r0, sp, #64	@ 0x40
 8000d40:	9316      	str	r3, [sp, #88]	@ 0x58
 8000d42:	f001 fe17 	bl	8002974 <HAL_RCCEx_PeriphCLKConfig>
 8000d46:	b108      	cbz	r0, 8000d4c <SystemClock_Config+0x7c>
 8000d48:	b672      	cpsid	i
 8000d4a:	e7fe      	b.n	8000d4a <SystemClock_Config+0x7a>
 8000d4c:	b01c      	add	sp, #112	@ 0x70
 8000d4e:	bd10      	pop	{r4, pc}
 8000d50:	00041081 	.word	0x00041081
 8000d54:	00000000 	.word	0x00000000

08000d58 <ntc_get_temperature>:
 8000d58:	b538      	push	{r3, r4, r5, lr}
 8000d5a:	f7ff fbd3 	bl	8000504 <__aeabi_ui2d>
 8000d5e:	a327      	add	r3, pc, #156	@ (adr r3, 8000dfc <ntc_get_temperature+0xa4>)
 8000d60:	e9d3 2300 	ldrd	r2, r3, [r3]
 8000d64:	f7ff fd72 	bl	800084c <__aeabi_ddiv>
 8000d68:	a326      	add	r3, pc, #152	@ (adr r3, 8000e04 <ntc_get_temperature+0xac>)
 8000d6a:	e9d3 2300 	ldrd	r2, r3, [r3]
 8000d6e:	f7ff fc43 	bl	80005f8 <__aeabi_dmul>
 8000d72:	f7ff fe53 	bl	8000a1c <__aeabi_d2f>
 8000d76:	f7ff fbe7 	bl	8000548 <__aeabi_f2d>
 8000d7a:	4604      	mov	r4, r0
 8000d7c:	460d      	mov	r5, r1
 8000d7e:	4602      	mov	r2, r0
 8000d80:	460b      	mov	r3, r1
 8000d82:	a120      	add	r1, pc, #128	@ (adr r1, 8000e04 <ntc_get_temperature+0xac>)
 8000d84:	e9d1 0100 	ldrd	r0, r1, [r1]
 8000d88:	f7ff fa7e 	bl	8000288 <__aeabi_dsub>
 8000d8c:	4602      	mov	r2, r0
 8000d8e:	460b      	mov	r3, r1
 8000d90:	4620      	mov	r0, r4
 8000d92:	4629      	mov	r1, r5
 8000d94:	f7ff fd5a 	bl	800084c <__aeabi_ddiv>
 8000d98:	a31c      	add	r3, pc, #112	@ (adr r3, 8000e0c <ntc_get_temperature+0xb4>)
 8000d9a:	e9d3 2300 	ldrd	r2, r3, [r3]
 8000d9e:	f7ff fc2b 	bl	80005f8 <__aeabi_dmul>
 8000da2:	f7ff fe3b 	bl	8000a1c <__aeabi_d2f>
 8000da6:	ee00 0a10 	vmov	s0, r0
 8000daa:	f003 fa91 	bl	80042d0 <logf>
 8000dae:	eddf 7a12 	vldr	s15, [pc, #72]	@ 8000df8 <ntc_get_temperature+0xa0>
 8000db2:	ee70 7a27 	vadd.f32	s15, s0, s15
 8000db6:	ee17 0a90 	vmov	r0, s15
 8000dba:	f7ff fbc5 	bl	8000548 <__aeabi_f2d>
 8000dbe:	4602      	mov	r2, r0
 8000dc0:	460b      	mov	r3, r1
 8000dc2:	a109      	add	r1, pc, #36	@ (adr r1, 8000de8 <ntc_get_temperature+0x90>)
 8000dc4:	e9d1 0100 	ldrd	r0, r1, [r1]
 8000dc8:	f7ff fd40 	bl	800084c <__aeabi_ddiv>
 8000dcc:	f7ff fe26 	bl	8000a1c <__aeabi_d2f>
 8000dd0:	f7ff fbba 	bl	8000548 <__aeabi_f2d>
 8000dd4:	a306      	add	r3, pc, #24	@ (adr r3, 8000df0 <ntc_get_temperature+0x98>)
 8000dd6:	e9d3 2300 	ldrd	r2, r3, [r3]
 8000dda:	f7ff fa55 	bl	8000288 <__aeabi_dsub>
 8000dde:	f7ff fe1d 	bl	8000a1c <__aeabi_d2f>
 8000de2:	ee00 0a10 	vmov	s0, r0
 8000de6:	bd38      	pop	{r3, r4, r5, pc}
 8000de8:	28f5c28f 	.word	0x28f5c28f
 8000dec:	40b027dc 	.word	0x40b027dc
 8000df0:	66666666 	.word	0x66666666
 8000df4:	40711266 	.word	0x40711266
 8000df8:	40185c59 	.word	0x40185c59
 8000dfc:	00000000 	.word	0x00000000
 8000e00:	40affe00 	.word	0x40affe00
 8000e04:	66666666 	.word	0x66666666
 8000e08:	400a6666 	.word	0x400a6666
 8000e0c:	00000000 	.word	0x00000000
 8000e10:	40ba9000 	.word	0x40ba9000

08000e14 <main>:
 8000e14:	b580      	push	{r7, lr}
 8000e16:	b08c      	sub	sp, #48	@ 0x30
 8000e18:	f000 fba8 	bl	800156c <HAL_Init>
 8000e1c:	4b45      	ldr	r3, [pc, #276]	@ (8000f34 <main+0x120>)
 8000e1e:	eddf 1a46 	vldr	s3, [pc, #280]	@ 8000f38 <main+0x124>
 8000e22:	ed93 2a00 	vldr	s4, [r3]
 8000e26:	4b45      	ldr	r3, [pc, #276]	@ (8000f3c <main+0x128>)
 8000e28:	ed9f 1a45 	vldr	s2, [pc, #276]	@ 8000f40 <main+0x12c>
 8000e2c:	edd3 2a00 	vldr	s5, [r3]
 8000e30:	eddf 0a44 	vldr	s1, [pc, #272]	@ 8000f44 <main+0x130>
 8000e34:	ed9f 0a44 	vldr	s0, [pc, #272]	@ 8000f48 <main+0x134>
 8000e38:	4f44      	ldr	r7, [pc, #272]	@ (8000f4c <main+0x138>)
 8000e3a:	4e45      	ldr	r6, [pc, #276]	@ (8000f50 <main+0x13c>)
 8000e3c:	4d45      	ldr	r5, [pc, #276]	@ (8000f54 <main+0x140>)
 8000e3e:	a803      	add	r0, sp, #12
 8000e40:	f000 f8a0 	bl	8000f84 <pi_begin>
 8000e44:	f7ff ff44 	bl	8000cd0 <SystemClock_Config>
 8000e48:	f7ff fef6 	bl	8000c38 <MX_GPIO_Init>
 8000e4c:	f7ff fecc 	bl	8000be8 <MX_DMA_Init>
 8000e50:	f7ff fe34 	bl	8000abc <MX_ADC1_Init>
 8000e54:	f000 fa4a 	bl	80012ec <MX_TIM2_Init>
 8000e58:	f000 f94a 	bl	80010f0 <MX_TIM1_Init>
 8000e5c:	f000 fa98 	bl	8001390 <MX_USART1_UART_Init>
 8000e60:	f000 f9a4 	bl	80011ac <MX_TIM15_Init>
 8000e64:	f000 f97e 	bl	8001164 <MX_TIM6_Init>
 8000e68:	4838      	ldr	r0, [pc, #224]	@ (8000f4c <main+0x138>)
 8000e6a:	f001 ff61 	bl	8002d30 <HAL_TIM_Base_Start>
 8000e6e:	483a      	ldr	r0, [pc, #232]	@ (8000f58 <main+0x144>)
 8000e70:	f001 ff5e 	bl	8002d30 <HAL_TIM_Base_Start>
 8000e74:	2100      	movs	r1, #0
 8000e76:	4839      	ldr	r0, [pc, #228]	@ (8000f5c <main+0x148>)
 8000e78:	f000 fd8c 	bl	8001994 <HAL_ADCEx_Calibration_Start>
 8000e7c:	2202      	movs	r2, #2
 8000e7e:	4938      	ldr	r1, [pc, #224]	@ (8000f60 <main+0x14c>)
 8000e80:	4836      	ldr	r0, [pc, #216]	@ (8000f5c <main+0x148>)
 8000e82:	f000 fd27 	bl	80018d4 <HAL_ADC_Start_DMA>
 8000e86:	4b37      	ldr	r3, [pc, #220]	@ (8000f64 <main+0x150>)
 8000e88:	edd3 7a02 	vldr	s15, [r3, #8]
 8000e8c:	f04f 4380 	mov.w	r3, #1073741824	@ 0x40000000
 8000e90:	eef8 7ae7 	vcvt.f32.s32	s15, s15
 8000e94:	2201      	movs	r2, #1
 8000e96:	edcd 7a07 	vstr	s15, [sp, #28]
 8000e9a:	63da      	str	r2, [r3, #60]	@ 0x3c
 8000e9c:	683b      	ldr	r3, [r7, #0]
 8000e9e:	4c32      	ldr	r4, [pc, #200]	@ (8000f68 <main+0x154>)
 8000ea0:	6a5b      	ldr	r3, [r3, #36]	@ 0x24
 8000ea2:	f44f 4100 	mov.w	r1, #32768	@ 0x8000
 8000ea6:	b29b      	uxth	r3, r3
 8000ea8:	f04f 4090 	mov.w	r0, #1207959552	@ 0x48000000
 8000eac:	8033      	strh	r3, [r6, #0]
 8000eae:	f001 fa00 	bl	80022b2 <HAL_GPIO_TogglePin>
 8000eb2:	4b2b      	ldr	r3, [pc, #172]	@ (8000f60 <main+0x14c>)
 8000eb4:	685a      	ldr	r2, [r3, #4]
 8000eb6:	4b2d      	ldr	r3, [pc, #180]	@ (8000f6c <main+0x158>)
 8000eb8:	601a      	str	r2, [r3, #0]
 8000eba:	f8d3 8000 	ldr.w	r8, [r3]
 8000ebe:	6818      	ldr	r0, [r3, #0]
 8000ec0:	f7ff ff4a 	bl	8000d58 <ntc_get_temperature>
 8000ec4:	8823      	ldrh	r3, [r4, #0]
 8000ec6:	492a      	ldr	r1, [pc, #168]	@ (8000f70 <main+0x15c>)
 8000ec8:	eefd 7ac0 	vcvt.s32.f32	s15, s0
 8000ecc:	b29b      	uxth	r3, r3
 8000ece:	4642      	mov	r2, r8
 8000ed0:	9300      	str	r3, [sp, #0]
 8000ed2:	4628      	mov	r0, r5
 8000ed4:	ee17 3a90 	vmov	r3, s15
 8000ed8:	f002 fd5a 	bl	8003990 <siprintf>
 8000edc:	8823      	ldrh	r3, [r4, #0]
 8000ede:	eddf 7a25 	vldr	s15, [pc, #148]	@ 8000f74 <main+0x160>
 8000ee2:	b29b      	uxth	r3, r3
 8000ee4:	ee00 3a10 	vmov	s0, r3
 8000ee8:	eeb8 0ac0 	vcvt.f32.s32	s0, s0
 8000eec:	a803      	add	r0, sp, #12
 8000eee:	ee80 0a27 	vdiv.f32	s0, s0, s15
 8000ef2:	f000 f854 	bl	8000f9e <pi_parallel_t>
 8000ef6:	f04f 4380 	mov.w	r3, #1073741824	@ 0x40000000
 8000efa:	4628      	mov	r0, r5
 8000efc:	eddd 7a0b 	vldr	s15, [sp, #44]	@ 0x2c
 8000f00:	eefc 7ae7 	vcvt.u32.f32	s15, s15
 8000f04:	edc3 7a0f 	vstr	s15, [r3, #60]	@ 0x3c
 8000f08:	f7ff f962 	bl	80001d0 <strlen>
 8000f0c:	4629      	mov	r1, r5
 8000f0e:	b282      	uxth	r2, r0
 8000f10:	4819      	ldr	r0, [pc, #100]	@ (8000f78 <main+0x164>)
 8000f12:	f002 f98f 	bl	8003234 <HAL_UART_Transmit_DMA>
 8000f16:	2000      	movs	r0, #0
 8000f18:	f000 fb4c 	bl	80015b4 <HAL_Delay>
 8000f1c:	683b      	ldr	r3, [r7, #0]
 8000f1e:	4a17      	ldr	r2, [pc, #92]	@ (8000f7c <main+0x168>)
 8000f20:	6a5b      	ldr	r3, [r3, #36]	@ 0x24
 8000f22:	b29b      	uxth	r3, r3
 8000f24:	8013      	strh	r3, [r2, #0]
 8000f26:	8813      	ldrh	r3, [r2, #0]
 8000f28:	8832      	ldrh	r2, [r6, #0]
 8000f2a:	1a9b      	subs	r3, r3, r2
 8000f2c:	b29b      	uxth	r3, r3
 8000f2e:	8023      	strh	r3, [r4, #0]
 8000f30:	e7b4      	b.n	8000e9c <main+0x88>
 8000f32:	bf00      	nop
 8000f34:	2000016c 	.word	0x2000016c
 8000f38:	00000000 	.word	0x00000000
 8000f3c:	20000170 	.word	0x20000170
 8000f40:	457ff000 	.word	0x457ff000
 8000f44:	3e4ccccd 	.word	0x3e4ccccd
 8000f48:	3f4ccccd 	.word	0x3f4ccccd
 8000f4c:	200001cc 	.word	0x200001cc
 8000f50:	20000122 	.word	0x20000122
 8000f54:	20000126 	.word	0x20000126
 8000f58:	20000264 	.word	0x20000264
 8000f5c:	200000d0 	.word	0x200000d0
 8000f60:	20000174 	.word	0x20000174
 8000f64:	20000000 	.word	0x20000000
 8000f68:	20000120 	.word	0x20000120
 8000f6c:	20000168 	.word	0x20000168
 8000f70:	08004534 	.word	0x08004534
 8000f74:	49742400 	.word	0x49742400
 8000f78:	20000338 	.word	0x20000338
 8000f7c:	20000124 	.word	0x20000124

08000f80 <Error_Handler>:
 8000f80:	b672      	cpsid	i
 8000f82:	e7fe      	b.n	8000f82 <Error_Handler+0x2>

08000f84 <pi_begin>:
 8000f84:	edc0 1a07 	vstr	s3, [r0, #28]
 8000f88:	ed80 2a06 	vstr	s4, [r0, #24]
 8000f8c:	ed80 0a00 	vstr	s0, [r0]
 8000f90:	edc0 0a01 	vstr	s1, [r0, #4]
 8000f94:	ed80 1a02 	vstr	s2, [r0, #8]
 8000f98:	edc0 2a03 	vstr	s5, [r0, #12]
 8000f9c:	4770      	bx	lr

08000f9e <pi_parallel_t>:
 8000f9e:	ed90 7a05 	vldr	s14, [r0, #20]
 8000fa2:	edd0 7a04 	vldr	s15, [r0, #16]
 8000fa6:	ed90 6a00 	vldr	s12, [r0]
 8000faa:	edd0 5a02 	vldr	s11, [r0, #8]
 8000fae:	edd0 6a07 	vldr	s13, [r0, #28]
 8000fb2:	ee77 7ac7 	vsub.f32	s15, s15, s14
 8000fb6:	ed90 7a01 	vldr	s14, [r0, #4]
 8000fba:	ee27 6a86 	vmul.f32	s12, s15, s12
 8000fbe:	ee67 7a87 	vmul.f32	s15, s15, s14
 8000fc2:	ee27 7aa5 	vmul.f32	s14, s15, s11
 8000fc6:	edd0 7a03 	vldr	s15, [r0, #12]
 8000fca:	eee7 7a00 	vfma.f32	s15, s14, s0
 8000fce:	ed90 7a06 	vldr	s14, [r0, #24]
 8000fd2:	eef4 7a66 	vcmp.f32	s15, s13
 8000fd6:	eef1 fa10 	vmrs	APSR_nzcv, fpscr
 8000fda:	bfc8      	it	gt
 8000fdc:	eef0 7a66 	vmovgt.f32	s15, s13
 8000fe0:	eeb4 7a67 	vcmp.f32	s14, s15
 8000fe4:	eef1 fa10 	vmrs	APSR_nzcv, fpscr
 8000fe8:	bfc8      	it	gt
 8000fea:	eef0 7a47 	vmovgt.f32	s15, s14
 8000fee:	edc0 7a03 	vstr	s15, [r0, #12]
 8000ff2:	ee46 7a25 	vmla.f32	s15, s12, s11
 8000ff6:	eef4 6a67 	vcmp.f32	s13, s15
 8000ffa:	eef1 fa10 	vmrs	APSR_nzcv, fpscr
 8000ffe:	eeb0 0a67 	vmov.f32	s0, s15
 8001002:	bf48      	it	mi
 8001004:	eeb0 0a66 	vmovmi.f32	s0, s13
 8001008:	eeb4 7a40 	vcmp.f32	s14, s0
 800100c:	eef1 fa10 	vmrs	APSR_nzcv, fpscr
 8001010:	bfc8      	it	gt
 8001012:	eeb0 0a47 	vmovgt.f32	s0, s14
 8001016:	ed80 0a08 	vstr	s0, [r0, #32]
 800101a:	4770      	bx	lr

0800101c <HAL_MspInit>:
 800101c:	4b0a      	ldr	r3, [pc, #40]	@ (8001048 <HAL_MspInit+0x2c>)
 800101e:	699a      	ldr	r2, [r3, #24]
 8001020:	f042 0201 	orr.w	r2, r2, #1
 8001024:	b082      	sub	sp, #8
 8001026:	619a      	str	r2, [r3, #24]
 8001028:	699a      	ldr	r2, [r3, #24]
 800102a:	f002 0201 	and.w	r2, r2, #1
 800102e:	9200      	str	r2, [sp, #0]
 8001030:	9a00      	ldr	r2, [sp, #0]
 8001032:	69da      	ldr	r2, [r3, #28]
 8001034:	f042 5280 	orr.w	r2, r2, #268435456	@ 0x10000000
 8001038:	61da      	str	r2, [r3, #28]
 800103a:	69db      	ldr	r3, [r3, #28]
 800103c:	f003 5380 	and.w	r3, r3, #268435456	@ 0x10000000
 8001040:	9301      	str	r3, [sp, #4]
 8001042:	9b01      	ldr	r3, [sp, #4]
 8001044:	b002      	add	sp, #8
 8001046:	4770      	bx	lr
 8001048:	40021000 	.word	0x40021000

0800104c <NMI_Handler>:
 800104c:	e7fe      	b.n	800104c <NMI_Handler>

0800104e <HardFault_Handler>:
 800104e:	e7fe      	b.n	800104e <HardFault_Handler>

08001050 <MemManage_Handler>:
 8001050:	e7fe      	b.n	8001050 <MemManage_Handler>

08001052 <BusFault_Handler>:
 8001052:	e7fe      	b.n	8001052 <BusFault_Handler>

08001054 <UsageFault_Handler>:
 8001054:	e7fe      	b.n	8001054 <UsageFault_Handler>

08001056 <SVC_Handler>:
 8001056:	4770      	bx	lr

08001058 <DebugMon_Handler>:
 8001058:	4770      	bx	lr

0800105a <PendSV_Handler>:
 800105a:	4770      	bx	lr

0800105c <SysTick_Handler>:
 800105c:	f000 ba98 	b.w	8001590 <HAL_IncTick>

08001060 <DMA1_Channel1_IRQHandler>:
 8001060:	4801      	ldr	r0, [pc, #4]	@ (8001068 <DMA1_Channel1_IRQHandler+0x8>)
 8001062:	f001 b81c 	b.w	800209e <HAL_DMA_IRQHandler>
 8001066:	bf00      	nop
 8001068:	2000008c 	.word	0x2000008c

0800106c <DMA1_Channel4_IRQHandler>:
 800106c:	4801      	ldr	r0, [pc, #4]	@ (8001074 <DMA1_Channel4_IRQHandler+0x8>)
 800106e:	f001 b816 	b.w	800209e <HAL_DMA_IRQHandler>
 8001072:	bf00      	nop
 8001074:	200002b0 	.word	0x200002b0

08001078 <DMA1_Channel5_IRQHandler>:
 8001078:	4801      	ldr	r0, [pc, #4]	@ (8001080 <DMA1_Channel5_IRQHandler+0x8>)
 800107a:	f001 b810 	b.w	800209e <HAL_DMA_IRQHandler>
 800107e:	bf00      	nop
 8001080:	200002f4 	.word	0x200002f4

08001084 <ADC1_IRQHandler>:
 8001084:	4801      	ldr	r0, [pc, #4]	@ (800108c <ADC1_IRQHandler+0x8>)
 8001086:	f000 bccf 	b.w	8001a28 <HAL_ADC_IRQHandler>
 800108a:	bf00      	nop
 800108c:	200000d0 	.word	0x200000d0

08001090 <USART1_IRQHandler>:
 8001090:	4801      	ldr	r0, [pc, #4]	@ (8001098 <USART1_IRQHandler+0x8>)
 8001092:	f002 b96f 	b.w	8003374 <HAL_UART_IRQHandler>
 8001096:	bf00      	nop
 8001098:	20000338 	.word	0x20000338

0800109c <_sbrk>:
 800109c:	4a0b      	ldr	r2, [pc, #44]	@ (80010cc <_sbrk+0x30>)
 800109e:	6811      	ldr	r1, [r2, #0]
 80010a0:	b510      	push	{r4, lr}
 80010a2:	4603      	mov	r3, r0
 80010a4:	b909      	cbnz	r1, 80010aa <_sbrk+0xe>
 80010a6:	490a      	ldr	r1, [pc, #40]	@ (80010d0 <_sbrk+0x34>)
 80010a8:	6011      	str	r1, [r2, #0]
 80010aa:	6810      	ldr	r0, [r2, #0]
 80010ac:	4909      	ldr	r1, [pc, #36]	@ (80010d4 <_sbrk+0x38>)
 80010ae:	4c0a      	ldr	r4, [pc, #40]	@ (80010d8 <_sbrk+0x3c>)
 80010b0:	4403      	add	r3, r0
 80010b2:	1b09      	subs	r1, r1, r4
 80010b4:	428b      	cmp	r3, r1
 80010b6:	d906      	bls.n	80010c6 <_sbrk+0x2a>
 80010b8:	f002 fc94 	bl	80039e4 <__errno>
 80010bc:	230c      	movs	r3, #12
 80010be:	6003      	str	r3, [r0, #0]
 80010c0:	f04f 30ff 	mov.w	r0, #4294967295
 80010c4:	bd10      	pop	{r4, pc}
 80010c6:	6013      	str	r3, [r2, #0]
 80010c8:	e7fc      	b.n	80010c4 <_sbrk+0x28>
 80010ca:	bf00      	nop
 80010cc:	2000017c 	.word	0x2000017c
 80010d0:	20000510 	.word	0x20000510
 80010d4:	20004000 	.word	0x20004000
 80010d8:	00000400 	.word	0x00000400

080010dc <SystemInit>:
 80010dc:	4a03      	ldr	r2, [pc, #12]	@ (80010ec <SystemInit+0x10>)
 80010de:	f8d2 3088 	ldr.w	r3, [r2, #136]	@ 0x88
 80010e2:	f443 0370 	orr.w	r3, r3, #15728640	@ 0xf00000
 80010e6:	f8c2 3088 	str.w	r3, [r2, #136]	@ 0x88
 80010ea:	4770      	bx	lr
 80010ec:	e000ed00 	.word	0xe000ed00

080010f0 <MX_TIM1_Init>:
 80010f0:	b500      	push	{lr}
 80010f2:	2210      	movs	r2, #16
 80010f4:	b089      	sub	sp, #36	@ 0x24
 80010f6:	2100      	movs	r1, #0
 80010f8:	eb0d 0002 	add.w	r0, sp, r2
 80010fc:	f002 fc6a 	bl	80039d4 <memset>
 8001100:	4816      	ldr	r0, [pc, #88]	@ (800115c <MX_TIM1_Init+0x6c>)
 8001102:	4917      	ldr	r1, [pc, #92]	@ (8001160 <MX_TIM1_Init+0x70>)
 8001104:	223f      	movs	r2, #63	@ 0x3f
 8001106:	2300      	movs	r3, #0
 8001108:	e9c0 1200 	strd	r1, r2, [r0]
 800110c:	f240 72cf 	movw	r2, #1999	@ 0x7cf
 8001110:	e9cd 3301 	strd	r3, r3, [sp, #4]
 8001114:	e9c0 2303 	strd	r2, r3, [r0, #12]
 8001118:	e9c0 3305 	strd	r3, r3, [r0, #20]
 800111c:	9303      	str	r3, [sp, #12]
 800111e:	6083      	str	r3, [r0, #8]
 8001120:	f001 fe72 	bl	8002e08 <HAL_TIM_Base_Init>
 8001124:	b108      	cbz	r0, 800112a <MX_TIM1_Init+0x3a>
 8001126:	f7ff ff2b 	bl	8000f80 <Error_Handler>
 800112a:	f44f 5380 	mov.w	r3, #4096	@ 0x1000
 800112e:	480b      	ldr	r0, [pc, #44]	@ (800115c <MX_TIM1_Init+0x6c>)
 8001130:	9304      	str	r3, [sp, #16]
 8001132:	a904      	add	r1, sp, #16
 8001134:	f001 ff8a 	bl	800304c <HAL_TIM_ConfigClockSource>
 8001138:	b108      	cbz	r0, 800113e <MX_TIM1_Init+0x4e>
 800113a:	f7ff ff21 	bl	8000f80 <Error_Handler>
 800113e:	2300      	movs	r3, #0
 8001140:	2220      	movs	r2, #32
 8001142:	4806      	ldr	r0, [pc, #24]	@ (800115c <MX_TIM1_Init+0x6c>)
 8001144:	9303      	str	r3, [sp, #12]
 8001146:	a901      	add	r1, sp, #4
 8001148:	e9cd 2301 	strd	r2, r3, [sp, #4]
 800114c:	f002 f818 	bl	8003180 <HAL_TIMEx_MasterConfigSynchronization>
 8001150:	b108      	cbz	r0, 8001156 <MX_TIM1_Init+0x66>
 8001152:	f7ff ff15 	bl	8000f80 <Error_Handler>
 8001156:	b009      	add	sp, #36	@ 0x24
 8001158:	f85d fb04 	ldr.w	pc, [sp], #4
 800115c:	20000264 	.word	0x20000264
 8001160:	40012c00 	.word	0x40012c00

08001164 <MX_TIM6_Init>:
 8001164:	b51f      	push	{r0, r1, r2, r3, r4, lr}
 8001166:	480f      	ldr	r0, [pc, #60]	@ (80011a4 <MX_TIM6_Init+0x40>)
 8001168:	4a0f      	ldr	r2, [pc, #60]	@ (80011a8 <MX_TIM6_Init+0x44>)
 800116a:	233f      	movs	r3, #63	@ 0x3f
 800116c:	2400      	movs	r4, #0
 800116e:	e9c0 2300 	strd	r2, r3, [r0]
 8001172:	f64f 73ff 	movw	r3, #65535	@ 0xffff
 8001176:	e9cd 4401 	strd	r4, r4, [sp, #4]
 800117a:	9403      	str	r4, [sp, #12]
 800117c:	6084      	str	r4, [r0, #8]
 800117e:	60c3      	str	r3, [r0, #12]
 8001180:	6184      	str	r4, [r0, #24]
 8001182:	f001 fe41 	bl	8002e08 <HAL_TIM_Base_Init>
 8001186:	b108      	cbz	r0, 800118c <MX_TIM6_Init+0x28>
 8001188:	f7ff fefa 	bl	8000f80 <Error_Handler>
 800118c:	4805      	ldr	r0, [pc, #20]	@ (80011a4 <MX_TIM6_Init+0x40>)
 800118e:	9401      	str	r4, [sp, #4]
 8001190:	a901      	add	r1, sp, #4
 8001192:	9403      	str	r4, [sp, #12]
 8001194:	f001 fff4 	bl	8003180 <HAL_TIMEx_MasterConfigSynchronization>
 8001198:	b108      	cbz	r0, 800119e <MX_TIM6_Init+0x3a>
 800119a:	f7ff fef1 	bl	8000f80 <Error_Handler>
 800119e:	b004      	add	sp, #16
 80011a0:	bd10      	pop	{r4, pc}
 80011a2:	bf00      	nop
 80011a4:	200001cc 	.word	0x200001cc
 80011a8:	40001000 	.word	0x40001000

080011ac <MX_TIM15_Init>:
 80011ac:	b500      	push	{lr}
 80011ae:	2210      	movs	r2, #16
 80011b0:	b089      	sub	sp, #36	@ 0x24
 80011b2:	eb0d 0002 	add.w	r0, sp, r2
 80011b6:	2100      	movs	r1, #0
 80011b8:	f002 fc0c 	bl	80039d4 <memset>
 80011bc:	4815      	ldr	r0, [pc, #84]	@ (8001214 <MX_TIM15_Init+0x68>)
 80011be:	4a16      	ldr	r2, [pc, #88]	@ (8001218 <MX_TIM15_Init+0x6c>)
 80011c0:	2300      	movs	r3, #0
 80011c2:	e9c0 2300 	strd	r2, r3, [r0]
 80011c6:	f64f 72ff 	movw	r2, #65535	@ 0xffff
 80011ca:	e9cd 3301 	strd	r3, r3, [sp, #4]
 80011ce:	e9c0 2303 	strd	r2, r3, [r0, #12]
 80011d2:	e9c0 3305 	strd	r3, r3, [r0, #20]
 80011d6:	9303      	str	r3, [sp, #12]
 80011d8:	6083      	str	r3, [r0, #8]
 80011da:	f001 fe15 	bl	8002e08 <HAL_TIM_Base_Init>
 80011de:	b108      	cbz	r0, 80011e4 <MX_TIM15_Init+0x38>
 80011e0:	f7ff fece 	bl	8000f80 <Error_Handler>
 80011e4:	f44f 5380 	mov.w	r3, #4096	@ 0x1000
 80011e8:	480a      	ldr	r0, [pc, #40]	@ (8001214 <MX_TIM15_Init+0x68>)
 80011ea:	9304      	str	r3, [sp, #16]
 80011ec:	a904      	add	r1, sp, #16
 80011ee:	f001 ff2d 	bl	800304c <HAL_TIM_ConfigClockSource>
 80011f2:	b108      	cbz	r0, 80011f8 <MX_TIM15_Init+0x4c>
 80011f4:	f7ff fec4 	bl	8000f80 <Error_Handler>
 80011f8:	2300      	movs	r3, #0
 80011fa:	4806      	ldr	r0, [pc, #24]	@ (8001214 <MX_TIM15_Init+0x68>)
 80011fc:	9301      	str	r3, [sp, #4]
 80011fe:	a901      	add	r1, sp, #4
 8001200:	9303      	str	r3, [sp, #12]
 8001202:	f001 ffbd 	bl	8003180 <HAL_TIMEx_MasterConfigSynchronization>
 8001206:	b108      	cbz	r0, 800120c <MX_TIM15_Init+0x60>
 8001208:	f7ff feba 	bl	8000f80 <Error_Handler>
 800120c:	b009      	add	sp, #36	@ 0x24
 800120e:	f85d fb04 	ldr.w	pc, [sp], #4
 8001212:	bf00      	nop
 8001214:	20000180 	.word	0x20000180
 8001218:	40014000 	.word	0x40014000

0800121c <HAL_TIM_Base_MspInit>:
 800121c:	6803      	ldr	r3, [r0, #0]
 800121e:	4a1d      	ldr	r2, [pc, #116]	@ (8001294 <HAL_TIM_Base_MspInit+0x78>)
 8001220:	4293      	cmp	r3, r2
 8001222:	b084      	sub	sp, #16
 8001224:	d10b      	bne.n	800123e <HAL_TIM_Base_MspInit+0x22>
 8001226:	4b1c      	ldr	r3, [pc, #112]	@ (8001298 <HAL_TIM_Base_MspInit+0x7c>)
 8001228:	699a      	ldr	r2, [r3, #24]
 800122a:	f442 6200 	orr.w	r2, r2, #2048	@ 0x800
 800122e:	619a      	str	r2, [r3, #24]
 8001230:	699b      	ldr	r3, [r3, #24]
 8001232:	f403 6300 	and.w	r3, r3, #2048	@ 0x800
 8001236:	9300      	str	r3, [sp, #0]
 8001238:	9b00      	ldr	r3, [sp, #0]
 800123a:	b004      	add	sp, #16
 800123c:	4770      	bx	lr
 800123e:	f1b3 4f80 	cmp.w	r3, #1073741824	@ 0x40000000
 8001242:	d10b      	bne.n	800125c <HAL_TIM_Base_MspInit+0x40>
 8001244:	f503 3304 	add.w	r3, r3, #135168	@ 0x21000
 8001248:	69da      	ldr	r2, [r3, #28]
 800124a:	f042 0201 	orr.w	r2, r2, #1
 800124e:	61da      	str	r2, [r3, #28]
 8001250:	69db      	ldr	r3, [r3, #28]
 8001252:	f003 0301 	and.w	r3, r3, #1
 8001256:	9301      	str	r3, [sp, #4]
 8001258:	9b01      	ldr	r3, [sp, #4]
 800125a:	e7ee      	b.n	800123a <HAL_TIM_Base_MspInit+0x1e>
 800125c:	4a0f      	ldr	r2, [pc, #60]	@ (800129c <HAL_TIM_Base_MspInit+0x80>)
 800125e:	4293      	cmp	r3, r2
 8001260:	d10a      	bne.n	8001278 <HAL_TIM_Base_MspInit+0x5c>
 8001262:	4b0d      	ldr	r3, [pc, #52]	@ (8001298 <HAL_TIM_Base_MspInit+0x7c>)
 8001264:	69da      	ldr	r2, [r3, #28]
 8001266:	f042 0210 	orr.w	r2, r2, #16
 800126a:	61da      	str	r2, [r3, #28]
 800126c:	69db      	ldr	r3, [r3, #28]
 800126e:	f003 0310 	and.w	r3, r3, #16
 8001272:	9302      	str	r3, [sp, #8]
 8001274:	9b02      	ldr	r3, [sp, #8]
 8001276:	e7e0      	b.n	800123a <HAL_TIM_Base_MspInit+0x1e>
 8001278:	4a09      	ldr	r2, [pc, #36]	@ (80012a0 <HAL_TIM_Base_MspInit+0x84>)
 800127a:	4293      	cmp	r3, r2
 800127c:	d1dd      	bne.n	800123a <HAL_TIM_Base_MspInit+0x1e>
 800127e:	4b06      	ldr	r3, [pc, #24]	@ (8001298 <HAL_TIM_Base_MspInit+0x7c>)
 8001280:	699a      	ldr	r2, [r3, #24]
 8001282:	f442 3280 	orr.w	r2, r2, #65536	@ 0x10000
 8001286:	619a      	str	r2, [r3, #24]
 8001288:	699b      	ldr	r3, [r3, #24]
 800128a:	f403 3380 	and.w	r3, r3, #65536	@ 0x10000
 800128e:	9303      	str	r3, [sp, #12]
 8001290:	9b03      	ldr	r3, [sp, #12]
 8001292:	e7d2      	b.n	800123a <HAL_TIM_Base_MspInit+0x1e>
 8001294:	40012c00 	.word	0x40012c00
 8001298:	40021000 	.word	0x40021000
 800129c:	40001000 	.word	0x40001000
 80012a0:	40014000 	.word	0x40014000

080012a4 <HAL_TIM_MspPostInit>:
 80012a4:	b510      	push	{r4, lr}
 80012a6:	4604      	mov	r4, r0
 80012a8:	b086      	sub	sp, #24
 80012aa:	2214      	movs	r2, #20
 80012ac:	2100      	movs	r1, #0
 80012ae:	a801      	add	r0, sp, #4
 80012b0:	f002 fb90 	bl	80039d4 <memset>
 80012b4:	6823      	ldr	r3, [r4, #0]
 80012b6:	f1b3 4f80 	cmp.w	r3, #1073741824	@ 0x40000000
 80012ba:	d115      	bne.n	80012e8 <HAL_TIM_MspPostInit+0x44>
 80012bc:	f503 3304 	add.w	r3, r3, #135168	@ 0x21000
 80012c0:	a901      	add	r1, sp, #4
 80012c2:	695a      	ldr	r2, [r3, #20]
 80012c4:	f442 3200 	orr.w	r2, r2, #131072	@ 0x20000
 80012c8:	615a      	str	r2, [r3, #20]
 80012ca:	695b      	ldr	r3, [r3, #20]
 80012cc:	f403 3300 	and.w	r3, r3, #131072	@ 0x20000
 80012d0:	9300      	str	r3, [sp, #0]
 80012d2:	9b00      	ldr	r3, [sp, #0]
 80012d4:	2204      	movs	r2, #4
 80012d6:	2302      	movs	r3, #2
 80012d8:	e9cd 2301 	strd	r2, r3, [sp, #4]
 80012dc:	f04f 4090 	mov.w	r0, #1207959552	@ 0x48000000
 80012e0:	2301      	movs	r3, #1
 80012e2:	9305      	str	r3, [sp, #20]
 80012e4:	f000 ff22 	bl	800212c <HAL_GPIO_Init>
 80012e8:	b006      	add	sp, #24
 80012ea:	bd10      	pop	{r4, pc}

080012ec <MX_TIM2_Init>:
 80012ec:	b510      	push	{r4, lr}
 80012ee:	b08e      	sub	sp, #56	@ 0x38
 80012f0:	2210      	movs	r2, #16
 80012f2:	2100      	movs	r1, #0
 80012f4:	a803      	add	r0, sp, #12
 80012f6:	f002 fb6d 	bl	80039d4 <memset>
 80012fa:	2400      	movs	r4, #0
 80012fc:	221c      	movs	r2, #28
 80012fe:	4621      	mov	r1, r4
 8001300:	eb0d 0002 	add.w	r0, sp, r2
 8001304:	e9cd 4400 	strd	r4, r4, [sp]
 8001308:	9402      	str	r4, [sp, #8]
 800130a:	f002 fb63 	bl	80039d4 <memset>
 800130e:	481f      	ldr	r0, [pc, #124]	@ (800138c <MX_TIM2_Init+0xa0>)
 8001310:	233f      	movs	r3, #63	@ 0x3f
 8001312:	f04f 4180 	mov.w	r1, #1073741824	@ 0x40000000
 8001316:	e9c0 1300 	strd	r1, r3, [r0]
 800131a:	2363      	movs	r3, #99	@ 0x63
 800131c:	e9c0 3403 	strd	r3, r4, [r0, #12]
 8001320:	2380      	movs	r3, #128	@ 0x80
 8001322:	6084      	str	r4, [r0, #8]
 8001324:	6183      	str	r3, [r0, #24]
 8001326:	f001 fd6f 	bl	8002e08 <HAL_TIM_Base_Init>
 800132a:	b108      	cbz	r0, 8001330 <MX_TIM2_Init+0x44>
 800132c:	f7ff fe28 	bl	8000f80 <Error_Handler>
 8001330:	f44f 5380 	mov.w	r3, #4096	@ 0x1000
 8001334:	4815      	ldr	r0, [pc, #84]	@ (800138c <MX_TIM2_Init+0xa0>)
 8001336:	9303      	str	r3, [sp, #12]
 8001338:	a903      	add	r1, sp, #12
 800133a:	f001 fe87 	bl	800304c <HAL_TIM_ConfigClockSource>
 800133e:	b108      	cbz	r0, 8001344 <MX_TIM2_Init+0x58>
 8001340:	f7ff fe1e 	bl	8000f80 <Error_Handler>
 8001344:	4811      	ldr	r0, [pc, #68]	@ (800138c <MX_TIM2_Init+0xa0>)
 8001346:	f001 fd8f 	bl	8002e68 <HAL_TIM_PWM_Init>
 800134a:	b108      	cbz	r0, 8001350 <MX_TIM2_Init+0x64>
 800134c:	f7ff fe18 	bl	8000f80 <Error_Handler>
 8001350:	2300      	movs	r3, #0
 8001352:	480e      	ldr	r0, [pc, #56]	@ (800138c <MX_TIM2_Init+0xa0>)
 8001354:	9300      	str	r3, [sp, #0]
 8001356:	4669      	mov	r1, sp
 8001358:	9302      	str	r3, [sp, #8]
 800135a:	f001 ff11 	bl	8003180 <HAL_TIMEx_MasterConfigSynchronization>
 800135e:	b108      	cbz	r0, 8001364 <MX_TIM2_Init+0x78>
 8001360:	f7ff fe0e 	bl	8000f80 <Error_Handler>
 8001364:	2260      	movs	r2, #96	@ 0x60
 8001366:	231e      	movs	r3, #30
 8001368:	e9cd 2307 	strd	r2, r3, [sp, #28]
 800136c:	4807      	ldr	r0, [pc, #28]	@ (800138c <MX_TIM2_Init+0xa0>)
 800136e:	2300      	movs	r3, #0
 8001370:	2208      	movs	r2, #8
 8001372:	a907      	add	r1, sp, #28
 8001374:	9309      	str	r3, [sp, #36]	@ 0x24
 8001376:	930b      	str	r3, [sp, #44]	@ 0x2c
 8001378:	f001 fde2 	bl	8002f40 <HAL_TIM_PWM_ConfigChannel>
 800137c:	b108      	cbz	r0, 8001382 <MX_TIM2_Init+0x96>
 800137e:	f7ff fdff 	bl	8000f80 <Error_Handler>
 8001382:	4802      	ldr	r0, [pc, #8]	@ (800138c <MX_TIM2_Init+0xa0>)
 8001384:	f7ff ff8e 	bl	80012a4 <HAL_TIM_MspPostInit>
 8001388:	b00e      	add	sp, #56	@ 0x38
 800138a:	bd10      	pop	{r4, pc}
 800138c:	20000218 	.word	0x20000218

08001390 <MX_USART1_UART_Init>:
 8001390:	480c      	ldr	r0, [pc, #48]	@ (80013c4 <MX_USART1_UART_Init+0x34>)
 8001392:	4a0d      	ldr	r2, [pc, #52]	@ (80013c8 <MX_USART1_UART_Init+0x38>)
 8001394:	b508      	push	{r3, lr}
 8001396:	f44f 5316 	mov.w	r3, #9600	@ 0x2580
 800139a:	e9c0 2300 	strd	r2, r3, [r0]
 800139e:	2300      	movs	r3, #0
 80013a0:	220c      	movs	r2, #12
 80013a2:	e9c0 3302 	strd	r3, r3, [r0, #8]
 80013a6:	e9c0 2305 	strd	r2, r3, [r0, #20]
 80013aa:	e9c0 3307 	strd	r3, r3, [r0, #28]
 80013ae:	6103      	str	r3, [r0, #16]
 80013b0:	6243      	str	r3, [r0, #36]	@ 0x24
 80013b2:	f002 fabe 	bl	8003932 <HAL_UART_Init>
 80013b6:	b118      	cbz	r0, 80013c0 <MX_USART1_UART_Init+0x30>
 80013b8:	e8bd 4008 	ldmia.w	sp!, {r3, lr}
 80013bc:	f7ff bde0 	b.w	8000f80 <Error_Handler>
 80013c0:	bd08      	pop	{r3, pc}
 80013c2:	bf00      	nop
 80013c4:	20000338 	.word	0x20000338
 80013c8:	40013800 	.word	0x40013800

080013cc <HAL_UART_MspInit>:
 80013cc:	b5f0      	push	{r4, r5, r6, r7, lr}
 80013ce:	4605      	mov	r5, r0
 80013d0:	b089      	sub	sp, #36	@ 0x24
 80013d2:	2214      	movs	r2, #20
 80013d4:	2100      	movs	r1, #0
 80013d6:	a803      	add	r0, sp, #12
 80013d8:	f002 fafc 	bl	80039d4 <memset>
 80013dc:	682a      	ldr	r2, [r5, #0]
 80013de:	4b36      	ldr	r3, [pc, #216]	@ (80014b8 <HAL_UART_MspInit+0xec>)
 80013e0:	429a      	cmp	r2, r3
 80013e2:	d166      	bne.n	80014b2 <HAL_UART_MspInit+0xe6>
 80013e4:	f503 4358 	add.w	r3, r3, #55296	@ 0xd800
 80013e8:	2602      	movs	r6, #2
 80013ea:	699a      	ldr	r2, [r3, #24]
 80013ec:	f442 4280 	orr.w	r2, r2, #16384	@ 0x4000
 80013f0:	619a      	str	r2, [r3, #24]
 80013f2:	699a      	ldr	r2, [r3, #24]
 80013f4:	f402 4280 	and.w	r2, r2, #16384	@ 0x4000
 80013f8:	9200      	str	r2, [sp, #0]
 80013fa:	9a00      	ldr	r2, [sp, #0]
 80013fc:	695a      	ldr	r2, [r3, #20]
 80013fe:	f442 3200 	orr.w	r2, r2, #131072	@ 0x20000
 8001402:	615a      	str	r2, [r3, #20]
 8001404:	695a      	ldr	r2, [r3, #20]
 8001406:	f402 3200 	and.w	r2, r2, #131072	@ 0x20000
 800140a:	9201      	str	r2, [sp, #4]
 800140c:	9a01      	ldr	r2, [sp, #4]
 800140e:	695a      	ldr	r2, [r3, #20]
 8001410:	f442 2280 	orr.w	r2, r2, #262144	@ 0x40000
 8001414:	615a      	str	r2, [r3, #20]
 8001416:	695b      	ldr	r3, [r3, #20]
 8001418:	f403 2380 	and.w	r3, r3, #262144	@ 0x40000
 800141c:	9302      	str	r3, [sp, #8]
 800141e:	2407      	movs	r4, #7
 8001420:	9b02      	ldr	r3, [sp, #8]
 8001422:	2703      	movs	r7, #3
 8001424:	f44f 6380 	mov.w	r3, #1024	@ 0x400
 8001428:	a903      	add	r1, sp, #12
 800142a:	f04f 4090 	mov.w	r0, #1207959552	@ 0x48000000
 800142e:	e9cd 3603 	strd	r3, r6, [sp, #12]
 8001432:	e9cd 7406 	strd	r7, r4, [sp, #24]
 8001436:	f000 fe79 	bl	800212c <HAL_GPIO_Init>
 800143a:	2340      	movs	r3, #64	@ 0x40
 800143c:	e9cd 3603 	strd	r3, r6, [sp, #12]
 8001440:	481e      	ldr	r0, [pc, #120]	@ (80014bc <HAL_UART_MspInit+0xf0>)
 8001442:	9407      	str	r4, [sp, #28]
 8001444:	2600      	movs	r6, #0
 8001446:	a903      	add	r1, sp, #12
 8001448:	4c1d      	ldr	r4, [pc, #116]	@ (80014c0 <HAL_UART_MspInit+0xf4>)
 800144a:	e9cd 6705 	strd	r6, r7, [sp, #20]
 800144e:	f000 fe6d 	bl	800212c <HAL_GPIO_Init>
 8001452:	4b1c      	ldr	r3, [pc, #112]	@ (80014c4 <HAL_UART_MspInit+0xf8>)
 8001454:	60a6      	str	r6, [r4, #8]
 8001456:	e9c4 3600 	strd	r3, r6, [r4]
 800145a:	2380      	movs	r3, #128	@ 0x80
 800145c:	e9c4 3603 	strd	r3, r6, [r4, #12]
 8001460:	4620      	mov	r0, r4
 8001462:	2320      	movs	r3, #32
 8001464:	e9c4 3606 	strd	r3, r6, [r4, #24]
 8001468:	6166      	str	r6, [r4, #20]
 800146a:	f000 fd73 	bl	8001f54 <HAL_DMA_Init>
 800146e:	b108      	cbz	r0, 8001474 <HAL_UART_MspInit+0xa8>
 8001470:	f7ff fd86 	bl	8000f80 <Error_Handler>
 8001474:	4a14      	ldr	r2, [pc, #80]	@ (80014c8 <HAL_UART_MspInit+0xfc>)
 8001476:	676c      	str	r4, [r5, #116]	@ 0x74
 8001478:	6265      	str	r5, [r4, #36]	@ 0x24
 800147a:	4c14      	ldr	r4, [pc, #80]	@ (80014cc <HAL_UART_MspInit+0x100>)
 800147c:	2310      	movs	r3, #16
 800147e:	e9c4 2300 	strd	r2, r3, [r4]
 8001482:	4620      	mov	r0, r4
 8001484:	2300      	movs	r3, #0
 8001486:	2280      	movs	r2, #128	@ 0x80
 8001488:	e9c4 3202 	strd	r3, r2, [r4, #8]
 800148c:	e9c4 3304 	strd	r3, r3, [r4, #16]
 8001490:	e9c4 3306 	strd	r3, r3, [r4, #24]
 8001494:	f000 fd5e 	bl	8001f54 <HAL_DMA_Init>
 8001498:	b108      	cbz	r0, 800149e <HAL_UART_MspInit+0xd2>
 800149a:	f7ff fd71 	bl	8000f80 <Error_Handler>
 800149e:	2200      	movs	r2, #0
 80014a0:	2025      	movs	r0, #37	@ 0x25
 80014a2:	672c      	str	r4, [r5, #112]	@ 0x70
 80014a4:	4611      	mov	r1, r2
 80014a6:	6265      	str	r5, [r4, #36]	@ 0x24
 80014a8:	f000 fd00 	bl	8001eac <HAL_NVIC_SetPriority>
 80014ac:	2025      	movs	r0, #37	@ 0x25
 80014ae:	f000 fd2f 	bl	8001f10 <HAL_NVIC_EnableIRQ>
 80014b2:	b009      	add	sp, #36	@ 0x24
 80014b4:	bdf0      	pop	{r4, r5, r6, r7, pc}
 80014b6:	bf00      	nop
 80014b8:	40013800 	.word	0x40013800
 80014bc:	48000400 	.word	0x48000400
 80014c0:	200002f4 	.word	0x200002f4
 80014c4:	40020058 	.word	0x40020058
 80014c8:	40020044 	.word	0x40020044
 80014cc:	200002b0 	.word	0x200002b0

080014d0 <Reset_Handler>:
 80014d0:	f8df d034 	ldr.w	sp, [pc, #52]	@ 8001508 <LoopForever+0x2>
 80014d4:	f7ff fe02 	bl	80010dc <SystemInit>
 80014d8:	480c      	ldr	r0, [pc, #48]	@ (800150c <LoopForever+0x6>)
 80014da:	490d      	ldr	r1, [pc, #52]	@ (8001510 <LoopForever+0xa>)
 80014dc:	4a0d      	ldr	r2, [pc, #52]	@ (8001514 <LoopForever+0xe>)
 80014de:	2300      	movs	r3, #0
 80014e0:	e002      	b.n	80014e8 <LoopCopyDataInit>

080014e2 <CopyDataInit>:
 80014e2:	58d4      	ldr	r4, [r2, r3]
 80014e4:	50c4      	str	r4, [r0, r3]
 80014e6:	3304      	adds	r3, #4

080014e8 <LoopCopyDataInit>:
 80014e8:	18c4      	adds	r4, r0, r3
 80014ea:	428c      	cmp	r4, r1
 80014ec:	d3f9      	bcc.n	80014e2 <CopyDataInit>
 80014ee:	4a0a      	ldr	r2, [pc, #40]	@ (8001518 <LoopForever+0x12>)
 80014f0:	4c0a      	ldr	r4, [pc, #40]	@ (800151c <LoopForever+0x16>)
 80014f2:	2300      	movs	r3, #0
 80014f4:	e001      	b.n	80014fa <LoopFillZerobss>

080014f6 <FillZerobss>:
 80014f6:	6013      	str	r3, [r2, #0]
 80014f8:	3204      	adds	r2, #4

080014fa <LoopFillZerobss>:
 80014fa:	42a2      	cmp	r2, r4
 80014fc:	d3fb      	bcc.n	80014f6 <FillZerobss>
 80014fe:	f002 fa77 	bl	80039f0 <__libc_init_array>
 8001502:	f7ff fc87 	bl	8000e14 <main>

08001506 <LoopForever>:
 8001506:	e7fe      	b.n	8001506 <LoopForever>
 8001508:	20004000 	.word	0x20004000
 800150c:	20000000 	.word	0x20000000
 8001510:	20000070 	.word	0x20000070
 8001514:	080045e4 	.word	0x080045e4
 8001518:	20000070 	.word	0x20000070
 800151c:	2000050c 	.word	0x2000050c

08001520 <COMP2_IRQHandler>:
 8001520:	e7fe      	b.n	8001520 <COMP2_IRQHandler>
	...

08001524 <HAL_InitTick>:
 8001524:	b538      	push	{r3, r4, r5, lr}
 8001526:	4b0e      	ldr	r3, [pc, #56]	@ (8001560 <HAL_InitTick+0x3c>)
 8001528:	781a      	ldrb	r2, [r3, #0]
 800152a:	f44f 737a 	mov.w	r3, #1000	@ 0x3e8
 800152e:	fbb3 f3f2 	udiv	r3, r3, r2
 8001532:	4a0c      	ldr	r2, [pc, #48]	@ (8001564 <HAL_InitTick+0x40>)
 8001534:	4605      	mov	r5, r0
 8001536:	6810      	ldr	r0, [r2, #0]
 8001538:	fbb0 f0f3 	udiv	r0, r0, r3
 800153c:	f000 fcf6 	bl	8001f2c <HAL_SYSTICK_Config>
 8001540:	4604      	mov	r4, r0
 8001542:	b958      	cbnz	r0, 800155c <HAL_InitTick+0x38>
 8001544:	2d0f      	cmp	r5, #15
 8001546:	d809      	bhi.n	800155c <HAL_InitTick+0x38>
 8001548:	4602      	mov	r2, r0
 800154a:	4629      	mov	r1, r5
 800154c:	f04f 30ff 	mov.w	r0, #4294967295
 8001550:	f000 fcac 	bl	8001eac <HAL_NVIC_SetPriority>
 8001554:	4b04      	ldr	r3, [pc, #16]	@ (8001568 <HAL_InitTick+0x44>)
 8001556:	4620      	mov	r0, r4
 8001558:	601d      	str	r5, [r3, #0]
 800155a:	bd38      	pop	{r3, r4, r5, pc}
 800155c:	2001      	movs	r0, #1
 800155e:	e7fc      	b.n	800155a <HAL_InitTick+0x36>
 8001560:	20000018 	.word	0x20000018
 8001564:	20000014 	.word	0x20000014
 8001568:	2000001c 	.word	0x2000001c

0800156c <HAL_Init>:
 800156c:	4a07      	ldr	r2, [pc, #28]	@ (800158c <HAL_Init+0x20>)
 800156e:	b508      	push	{r3, lr}
 8001570:	6813      	ldr	r3, [r2, #0]
 8001572:	f043 0310 	orr.w	r3, r3, #16
 8001576:	6013      	str	r3, [r2, #0]
 8001578:	2003      	movs	r0, #3
 800157a:	f000 fc85 	bl	8001e88 <HAL_NVIC_SetPriorityGrouping>
 800157e:	200f      	movs	r0, #15
 8001580:	f7ff ffd0 	bl	8001524 <HAL_InitTick>
 8001584:	f7ff fd4a 	bl	800101c <HAL_MspInit>
 8001588:	2000      	movs	r0, #0
 800158a:	bd08      	pop	{r3, pc}
 800158c:	40022000 	.word	0x40022000

08001590 <HAL_IncTick>:
 8001590:	4a03      	ldr	r2, [pc, #12]	@ (80015a0 <HAL_IncTick+0x10>)
 8001592:	4b04      	ldr	r3, [pc, #16]	@ (80015a4 <HAL_IncTick+0x14>)
 8001594:	6811      	ldr	r1, [r2, #0]
 8001596:	781b      	ldrb	r3, [r3, #0]
 8001598:	440b      	add	r3, r1
 800159a:	6013      	str	r3, [r2, #0]
 800159c:	4770      	bx	lr
 800159e:	bf00      	nop
 80015a0:	200003c0 	.word	0x200003c0
 80015a4:	20000018 	.word	0x20000018

080015a8 <HAL_GetTick>:
 80015a8:	4b01      	ldr	r3, [pc, #4]	@ (80015b0 <HAL_GetTick+0x8>)
 80015aa:	6818      	ldr	r0, [r3, #0]
 80015ac:	4770      	bx	lr
 80015ae:	bf00      	nop
 80015b0:	200003c0 	.word	0x200003c0

080015b4 <HAL_Delay>:
 80015b4:	b538      	push	{r3, r4, r5, lr}
 80015b6:	4604      	mov	r4, r0
 80015b8:	f7ff fff6 	bl	80015a8 <HAL_GetTick>
 80015bc:	1c63      	adds	r3, r4, #1
 80015be:	bf1c      	itt	ne
 80015c0:	4b05      	ldrne	r3, [pc, #20]	@ (80015d8 <HAL_Delay+0x24>)
 80015c2:	781b      	ldrbne	r3, [r3, #0]
 80015c4:	4605      	mov	r5, r0
 80015c6:	bf18      	it	ne
 80015c8:	18e4      	addne	r4, r4, r3
 80015ca:	f7ff ffed 	bl	80015a8 <HAL_GetTick>
 80015ce:	1b43      	subs	r3, r0, r5
 80015d0:	42a3      	cmp	r3, r4
 80015d2:	d3fa      	bcc.n	80015ca <HAL_Delay+0x16>
 80015d4:	bd38      	pop	{r3, r4, r5, pc}
 80015d6:	bf00      	nop
 80015d8:	20000018 	.word	0x20000018

080015dc <HAL_ADC_ConvCpltCallback>:
 80015dc:	4770      	bx	lr

080015de <HAL_ADC_ConvHalfCpltCallback>:
 80015de:	4770      	bx	lr

080015e0 <HAL_ADC_LevelOutOfWindowCallback>:
 80015e0:	4770      	bx	lr

080015e2 <HAL_ADC_ErrorCallback>:
 80015e2:	4770      	bx	lr

080015e4 <ADC_Disable>:
 80015e4:	b538      	push	{r3, r4, r5, lr}
 80015e6:	6803      	ldr	r3, [r0, #0]
 80015e8:	689a      	ldr	r2, [r3, #8]
 80015ea:	f002 0203 	and.w	r2, r2, #3
 80015ee:	2a01      	cmp	r2, #1
 80015f0:	4604      	mov	r4, r0
 80015f2:	d001      	beq.n	80015f8 <ADC_Disable+0x14>
 80015f4:	2000      	movs	r0, #0
 80015f6:	bd38      	pop	{r3, r4, r5, pc}
 80015f8:	681a      	ldr	r2, [r3, #0]
 80015fa:	07d1      	lsls	r1, r2, #31
 80015fc:	d5fa      	bpl.n	80015f4 <ADC_Disable+0x10>
 80015fe:	689a      	ldr	r2, [r3, #8]
 8001600:	f002 020d 	and.w	r2, r2, #13
 8001604:	2a01      	cmp	r2, #1
 8001606:	d115      	bne.n	8001634 <ADC_Disable+0x50>
 8001608:	689a      	ldr	r2, [r3, #8]
 800160a:	f042 0202 	orr.w	r2, r2, #2
 800160e:	609a      	str	r2, [r3, #8]
 8001610:	2203      	movs	r2, #3
 8001612:	601a      	str	r2, [r3, #0]
 8001614:	f7ff ffc8 	bl	80015a8 <HAL_GetTick>
 8001618:	4605      	mov	r5, r0
 800161a:	6823      	ldr	r3, [r4, #0]
 800161c:	689b      	ldr	r3, [r3, #8]
 800161e:	07db      	lsls	r3, r3, #31
 8001620:	d5e8      	bpl.n	80015f4 <ADC_Disable+0x10>
 8001622:	f7ff ffc1 	bl	80015a8 <HAL_GetTick>
 8001626:	1b40      	subs	r0, r0, r5
 8001628:	2802      	cmp	r0, #2
 800162a:	d9f6      	bls.n	800161a <ADC_Disable+0x36>
 800162c:	6823      	ldr	r3, [r4, #0]
 800162e:	689b      	ldr	r3, [r3, #8]
 8001630:	07da      	lsls	r2, r3, #31
 8001632:	d5f2      	bpl.n	800161a <ADC_Disable+0x36>
 8001634:	6c23      	ldr	r3, [r4, #64]	@ 0x40
 8001636:	f043 0310 	orr.w	r3, r3, #16
 800163a:	6423      	str	r3, [r4, #64]	@ 0x40
 800163c:	6c63      	ldr	r3, [r4, #68]	@ 0x44
 800163e:	f043 0301 	orr.w	r3, r3, #1
 8001642:	6463      	str	r3, [r4, #68]	@ 0x44
 8001644:	2001      	movs	r0, #1
 8001646:	e7d6      	b.n	80015f6 <ADC_Disable+0x12>

08001648 <ADC_DMAError>:
 8001648:	6a40      	ldr	r0, [r0, #36]	@ 0x24
 800164a:	6c03      	ldr	r3, [r0, #64]	@ 0x40
 800164c:	f043 0340 	orr.w	r3, r3, #64	@ 0x40
 8001650:	6403      	str	r3, [r0, #64]	@ 0x40
 8001652:	6c43      	ldr	r3, [r0, #68]	@ 0x44
 8001654:	f043 0304 	orr.w	r3, r3, #4
 8001658:	6443      	str	r3, [r0, #68]	@ 0x44
 800165a:	f7ff bfc2 	b.w	80015e2 <HAL_ADC_ErrorCallback>

0800165e <ADC_DMAHalfConvCplt>:
 800165e:	6a40      	ldr	r0, [r0, #36]	@ 0x24
 8001660:	f7ff bfbd 	b.w	80015de <HAL_ADC_ConvHalfCpltCallback>

08001664 <ADC_DMAConvCplt>:
 8001664:	6a43      	ldr	r3, [r0, #36]	@ 0x24
 8001666:	6c1a      	ldr	r2, [r3, #64]	@ 0x40
 8001668:	f012 0f50 	tst.w	r2, #80	@ 0x50
 800166c:	d118      	bne.n	80016a0 <ADC_DMAConvCplt+0x3c>
 800166e:	6c1a      	ldr	r2, [r3, #64]	@ 0x40
 8001670:	f442 7200 	orr.w	r2, r2, #512	@ 0x200
 8001674:	641a      	str	r2, [r3, #64]	@ 0x40
 8001676:	681a      	ldr	r2, [r3, #0]
 8001678:	68d2      	ldr	r2, [r2, #12]
 800167a:	f412 6f40 	tst.w	r2, #3072	@ 0xc00
 800167e:	d10c      	bne.n	800169a <ADC_DMAConvCplt+0x36>
 8001680:	7e5a      	ldrb	r2, [r3, #25]
 8001682:	b952      	cbnz	r2, 800169a <ADC_DMAConvCplt+0x36>
 8001684:	6c1a      	ldr	r2, [r3, #64]	@ 0x40
 8001686:	f422 7280 	bic.w	r2, r2, #256	@ 0x100
 800168a:	641a      	str	r2, [r3, #64]	@ 0x40
 800168c:	6c1a      	ldr	r2, [r3, #64]	@ 0x40
 800168e:	04d2      	lsls	r2, r2, #19
 8001690:	bf5e      	ittt	pl
 8001692:	6c1a      	ldrpl	r2, [r3, #64]	@ 0x40
 8001694:	f042 0201 	orrpl.w	r2, r2, #1
 8001698:	641a      	strpl	r2, [r3, #64]	@ 0x40
 800169a:	4618      	mov	r0, r3
 800169c:	f7ff bf9e 	b.w	80015dc <HAL_ADC_ConvCpltCallback>
 80016a0:	6b9b      	ldr	r3, [r3, #56]	@ 0x38
 80016a2:	6b1b      	ldr	r3, [r3, #48]	@ 0x30
 80016a4:	4718      	bx	r3
	...

080016a8 <ADC_Enable.constprop.0>:
 80016a8:	b538      	push	{r3, r4, r5, lr}
 80016aa:	6803      	ldr	r3, [r0, #0]
 80016ac:	689a      	ldr	r2, [r3, #8]
 80016ae:	f002 0203 	and.w	r2, r2, #3
 80016b2:	2a01      	cmp	r2, #1
 80016b4:	4604      	mov	r4, r0
 80016b6:	d104      	bne.n	80016c2 <ADC_Enable.constprop.0+0x1a>
 80016b8:	681a      	ldr	r2, [r3, #0]
 80016ba:	07d1      	lsls	r1, r2, #31
 80016bc:	d501      	bpl.n	80016c2 <ADC_Enable.constprop.0+0x1a>
 80016be:	2000      	movs	r0, #0
 80016c0:	bd38      	pop	{r3, r4, r5, pc}
 80016c2:	6899      	ldr	r1, [r3, #8]
 80016c4:	4a10      	ldr	r2, [pc, #64]	@ (8001708 <ADC_Enable.constprop.0+0x60>)
 80016c6:	4211      	tst	r1, r2
 80016c8:	d009      	beq.n	80016de <ADC_Enable.constprop.0+0x36>
 80016ca:	6c23      	ldr	r3, [r4, #64]	@ 0x40
 80016cc:	f043 0310 	orr.w	r3, r3, #16
 80016d0:	6423      	str	r3, [r4, #64]	@ 0x40
 80016d2:	6c63      	ldr	r3, [r4, #68]	@ 0x44
 80016d4:	f043 0301 	orr.w	r3, r3, #1
 80016d8:	6463      	str	r3, [r4, #68]	@ 0x44
 80016da:	2001      	movs	r0, #1
 80016dc:	e7f0      	b.n	80016c0 <ADC_Enable.constprop.0+0x18>
 80016de:	689a      	ldr	r2, [r3, #8]
 80016e0:	f042 0201 	orr.w	r2, r2, #1
 80016e4:	609a      	str	r2, [r3, #8]
 80016e6:	f7ff ff5f 	bl	80015a8 <HAL_GetTick>
 80016ea:	4605      	mov	r5, r0
 80016ec:	6823      	ldr	r3, [r4, #0]
 80016ee:	681b      	ldr	r3, [r3, #0]
 80016f0:	07db      	lsls	r3, r3, #31
 80016f2:	d4e4      	bmi.n	80016be <ADC_Enable.constprop.0+0x16>
 80016f4:	f7ff ff58 	bl	80015a8 <HAL_GetTick>
 80016f8:	1b40      	subs	r0, r0, r5
 80016fa:	2802      	cmp	r0, #2
 80016fc:	d9f6      	bls.n	80016ec <ADC_Enable.constprop.0+0x44>
 80016fe:	6823      	ldr	r3, [r4, #0]
 8001700:	681b      	ldr	r3, [r3, #0]
 8001702:	07da      	lsls	r2, r3, #31
 8001704:	d4f2      	bmi.n	80016ec <ADC_Enable.constprop.0+0x44>
 8001706:	e7e0      	b.n	80016ca <ADC_Enable.constprop.0+0x22>
 8001708:	8000003f 	.word	0x8000003f

0800170c <HAL_ADC_Init>:
 800170c:	b537      	push	{r0, r1, r2, r4, r5, lr}
 800170e:	2300      	movs	r3, #0
 8001710:	9301      	str	r3, [sp, #4]
 8001712:	4604      	mov	r4, r0
 8001714:	2800      	cmp	r0, #0
 8001716:	f000 80d2 	beq.w	80018be <HAL_ADC_Init+0x1b2>
 800171a:	6c02      	ldr	r2, [r0, #64]	@ 0x40
 800171c:	06d5      	lsls	r5, r2, #27
 800171e:	f100 80bb 	bmi.w	8001898 <HAL_ADC_Init+0x18c>
 8001722:	6c03      	ldr	r3, [r0, #64]	@ 0x40
 8001724:	2b00      	cmp	r3, #0
 8001726:	f000 8081 	beq.w	800182c <HAL_ADC_Init+0x120>
 800172a:	2000      	movs	r0, #0
 800172c:	6823      	ldr	r3, [r4, #0]
 800172e:	689a      	ldr	r2, [r3, #8]
 8001730:	00d2      	lsls	r2, r2, #3
 8001732:	d502      	bpl.n	800173a <HAL_ADC_Init+0x2e>
 8001734:	689b      	ldr	r3, [r3, #8]
 8001736:	009b      	lsls	r3, r3, #2
 8001738:	d50a      	bpl.n	8001750 <HAL_ADC_Init+0x44>
 800173a:	6c23      	ldr	r3, [r4, #64]	@ 0x40
 800173c:	f023 0312 	bic.w	r3, r3, #18
 8001740:	f043 0310 	orr.w	r3, r3, #16
 8001744:	6423      	str	r3, [r4, #64]	@ 0x40
 8001746:	6c63      	ldr	r3, [r4, #68]	@ 0x44
 8001748:	f043 0301 	orr.w	r3, r3, #1
 800174c:	6463      	str	r3, [r4, #68]	@ 0x44
 800174e:	2001      	movs	r0, #1
 8001750:	6c23      	ldr	r3, [r4, #64]	@ 0x40
 8001752:	06dd      	lsls	r5, r3, #27
 8001754:	f100 80ad 	bmi.w	80018b2 <HAL_ADC_Init+0x1a6>
 8001758:	2800      	cmp	r0, #0
 800175a:	f040 80aa 	bne.w	80018b2 <HAL_ADC_Init+0x1a6>
 800175e:	6822      	ldr	r2, [r4, #0]
 8001760:	6893      	ldr	r3, [r2, #8]
 8001762:	0759      	lsls	r1, r3, #29
 8001764:	f100 80a5 	bmi.w	80018b2 <HAL_ADC_Init+0x1a6>
 8001768:	6c23      	ldr	r3, [r4, #64]	@ 0x40
 800176a:	f423 7381 	bic.w	r3, r3, #258	@ 0x102
 800176e:	f043 0302 	orr.w	r3, r3, #2
 8001772:	6423      	str	r3, [r4, #64]	@ 0x40
 8001774:	6893      	ldr	r3, [r2, #8]
 8001776:	f003 0303 	and.w	r3, r3, #3
 800177a:	2b01      	cmp	r3, #1
 800177c:	d102      	bne.n	8001784 <HAL_ADC_Init+0x78>
 800177e:	6813      	ldr	r3, [r2, #0]
 8001780:	07db      	lsls	r3, r3, #31
 8001782:	d406      	bmi.n	8001792 <HAL_ADC_Init+0x86>
 8001784:	494f      	ldr	r1, [pc, #316]	@ (80018c4 <HAL_ADC_Init+0x1b8>)
 8001786:	6865      	ldr	r5, [r4, #4]
 8001788:	688b      	ldr	r3, [r1, #8]
 800178a:	f423 3340 	bic.w	r3, r3, #196608	@ 0x30000
 800178e:	432b      	orrs	r3, r5
 8001790:	608b      	str	r3, [r1, #8]
 8001792:	e9d4 1302 	ldrd	r1, r3, [r4, #8]
 8001796:	430b      	orrs	r3, r1
 8001798:	6b61      	ldr	r1, [r4, #52]	@ 0x34
 800179a:	7e65      	ldrb	r5, [r4, #25]
 800179c:	3901      	subs	r1, #1
 800179e:	bf18      	it	ne
 80017a0:	2101      	movne	r1, #1
 80017a2:	ea43 3345 	orr.w	r3, r3, r5, lsl #13
 80017a6:	ea43 3301 	orr.w	r3, r3, r1, lsl #12
 80017aa:	f894 1020 	ldrb.w	r1, [r4, #32]
 80017ae:	2901      	cmp	r1, #1
 80017b0:	d107      	bne.n	80017c2 <HAL_ADC_Init+0xb6>
 80017b2:	2d00      	cmp	r5, #0
 80017b4:	d172      	bne.n	800189c <HAL_ADC_Init+0x190>
 80017b6:	6a61      	ldr	r1, [r4, #36]	@ 0x24
 80017b8:	3901      	subs	r1, #1
 80017ba:	ea43 4141 	orr.w	r1, r3, r1, lsl #17
 80017be:	f441 3380 	orr.w	r3, r1, #65536	@ 0x10000
 80017c2:	6aa1      	ldr	r1, [r4, #40]	@ 0x28
 80017c4:	2901      	cmp	r1, #1
 80017c6:	bf1e      	ittt	ne
 80017c8:	6ae5      	ldrne	r5, [r4, #44]	@ 0x2c
 80017ca:	4329      	orrne	r1, r5
 80017cc:	430b      	orrne	r3, r1
 80017ce:	6891      	ldr	r1, [r2, #8]
 80017d0:	f011 0f0c 	tst.w	r1, #12
 80017d4:	d10c      	bne.n	80017f0 <HAL_ADC_Init+0xe4>
 80017d6:	68d1      	ldr	r1, [r2, #12]
 80017d8:	f421 4180 	bic.w	r1, r1, #16384	@ 0x4000
 80017dc:	f021 0102 	bic.w	r1, r1, #2
 80017e0:	60d1      	str	r1, [r2, #12]
 80017e2:	f894 1030 	ldrb.w	r1, [r4, #48]	@ 0x30
 80017e6:	7e25      	ldrb	r5, [r4, #24]
 80017e8:	0049      	lsls	r1, r1, #1
 80017ea:	ea41 3185 	orr.w	r1, r1, r5, lsl #14
 80017ee:	430b      	orrs	r3, r1
 80017f0:	68d5      	ldr	r5, [r2, #12]
 80017f2:	4935      	ldr	r1, [pc, #212]	@ (80018c8 <HAL_ADC_Init+0x1bc>)
 80017f4:	4029      	ands	r1, r5
 80017f6:	4319      	orrs	r1, r3
 80017f8:	6923      	ldr	r3, [r4, #16]
 80017fa:	60d1      	str	r1, [r2, #12]
 80017fc:	2b01      	cmp	r3, #1
 80017fe:	bf05      	ittet	eq
 8001800:	6b11      	ldreq	r1, [r2, #48]	@ 0x30
 8001802:	69e3      	ldreq	r3, [r4, #28]
 8001804:	6b13      	ldrne	r3, [r2, #48]	@ 0x30
 8001806:	f103 33ff 	addeq.w	r3, r3, #4294967295
 800180a:	bf06      	itte	eq
 800180c:	f021 010f 	biceq.w	r1, r1, #15
 8001810:	430b      	orreq	r3, r1
 8001812:	f023 030f 	bicne.w	r3, r3, #15
 8001816:	6313      	str	r3, [r2, #48]	@ 0x30
 8001818:	2300      	movs	r3, #0
 800181a:	6463      	str	r3, [r4, #68]	@ 0x44
 800181c:	6c23      	ldr	r3, [r4, #64]	@ 0x40
 800181e:	f023 0303 	bic.w	r3, r3, #3
 8001822:	f043 0301 	orr.w	r3, r3, #1
 8001826:	6423      	str	r3, [r4, #64]	@ 0x40
 8001828:	b003      	add	sp, #12
 800182a:	bd30      	pop	{r4, r5, pc}
 800182c:	e9c0 3312 	strd	r3, r3, [r0, #72]	@ 0x48
 8001830:	6443      	str	r3, [r0, #68]	@ 0x44
 8001832:	f880 303c 	strb.w	r3, [r0, #60]	@ 0x3c
 8001836:	f7ff f985 	bl	8000b44 <HAL_ADC_MspInit>
 800183a:	6823      	ldr	r3, [r4, #0]
 800183c:	689b      	ldr	r3, [r3, #8]
 800183e:	00d8      	lsls	r0, r3, #3
 8001840:	f53f af73 	bmi.w	800172a <HAL_ADC_Init+0x1e>
 8001844:	4620      	mov	r0, r4
 8001846:	f7ff fecd 	bl	80015e4 <ADC_Disable>
 800184a:	6c22      	ldr	r2, [r4, #64]	@ 0x40
 800184c:	06d1      	lsls	r1, r2, #27
 800184e:	f53f af6d 	bmi.w	800172c <HAL_ADC_Init+0x20>
 8001852:	2800      	cmp	r0, #0
 8001854:	f47f af6a 	bne.w	800172c <HAL_ADC_Init+0x20>
 8001858:	6c23      	ldr	r3, [r4, #64]	@ 0x40
 800185a:	6822      	ldr	r2, [r4, #0]
 800185c:	f423 5388 	bic.w	r3, r3, #4352	@ 0x1100
 8001860:	f023 0302 	bic.w	r3, r3, #2
 8001864:	f043 0302 	orr.w	r3, r3, #2
 8001868:	6423      	str	r3, [r4, #64]	@ 0x40
 800186a:	6893      	ldr	r3, [r2, #8]
 800186c:	f023 5340 	bic.w	r3, r3, #805306368	@ 0x30000000
 8001870:	6093      	str	r3, [r2, #8]
 8001872:	6893      	ldr	r3, [r2, #8]
 8001874:	f043 5380 	orr.w	r3, r3, #268435456	@ 0x10000000
 8001878:	6093      	str	r3, [r2, #8]
 800187a:	4b14      	ldr	r3, [pc, #80]	@ (80018cc <HAL_ADC_Init+0x1c0>)
 800187c:	4a14      	ldr	r2, [pc, #80]	@ (80018d0 <HAL_ADC_Init+0x1c4>)
 800187e:	681b      	ldr	r3, [r3, #0]
 8001880:	fbb3 f3f2 	udiv	r3, r3, r2
 8001884:	220a      	movs	r2, #10
 8001886:	4353      	muls	r3, r2
 8001888:	9301      	str	r3, [sp, #4]
 800188a:	9b01      	ldr	r3, [sp, #4]
 800188c:	2b00      	cmp	r3, #0
 800188e:	f43f af4c 	beq.w	800172a <HAL_ADC_Init+0x1e>
 8001892:	9b01      	ldr	r3, [sp, #4]
 8001894:	3b01      	subs	r3, #1
 8001896:	e7f7      	b.n	8001888 <HAL_ADC_Init+0x17c>
 8001898:	4618      	mov	r0, r3
 800189a:	e759      	b.n	8001750 <HAL_ADC_Init+0x44>
 800189c:	6c21      	ldr	r1, [r4, #64]	@ 0x40
 800189e:	f021 0122 	bic.w	r1, r1, #34	@ 0x22
 80018a2:	f041 0120 	orr.w	r1, r1, #32
 80018a6:	6421      	str	r1, [r4, #64]	@ 0x40
 80018a8:	6c61      	ldr	r1, [r4, #68]	@ 0x44
 80018aa:	f041 0101 	orr.w	r1, r1, #1
 80018ae:	6461      	str	r1, [r4, #68]	@ 0x44
 80018b0:	e787      	b.n	80017c2 <HAL_ADC_Init+0xb6>
 80018b2:	6c23      	ldr	r3, [r4, #64]	@ 0x40
 80018b4:	f023 0312 	bic.w	r3, r3, #18
 80018b8:	f043 0310 	orr.w	r3, r3, #16
 80018bc:	6423      	str	r3, [r4, #64]	@ 0x40
 80018be:	2001      	movs	r0, #1
 80018c0:	e7b2      	b.n	8001828 <HAL_ADC_Init+0x11c>
 80018c2:	bf00      	nop
 80018c4:	50000300 	.word	0x50000300
 80018c8:	fff0c007 	.word	0xfff0c007
 80018cc:	20000014 	.word	0x20000014
 80018d0:	000f4240 	.word	0x000f4240

080018d4 <HAL_ADC_Start_DMA>:
 80018d4:	6803      	ldr	r3, [r0, #0]
 80018d6:	e92d 41f0 	stmdb	sp!, {r4, r5, r6, r7, r8, lr}
 80018da:	689d      	ldr	r5, [r3, #8]
 80018dc:	f015 0504 	ands.w	r5, r5, #4
 80018e0:	4604      	mov	r4, r0
 80018e2:	460f      	mov	r7, r1
 80018e4:	4690      	mov	r8, r2
 80018e6:	d14d      	bne.n	8001984 <HAL_ADC_Start_DMA+0xb0>
 80018e8:	f890 303c 	ldrb.w	r3, [r0, #60]	@ 0x3c
 80018ec:	2b01      	cmp	r3, #1
 80018ee:	d049      	beq.n	8001984 <HAL_ADC_Start_DMA+0xb0>
 80018f0:	2301      	movs	r3, #1
 80018f2:	f880 303c 	strb.w	r3, [r0, #60]	@ 0x3c
 80018f6:	f7ff fed7 	bl	80016a8 <ADC_Enable.constprop.0>
 80018fa:	4606      	mov	r6, r0
 80018fc:	2800      	cmp	r0, #0
 80018fe:	d13e      	bne.n	800197e <HAL_ADC_Start_DMA+0xaa>
 8001900:	6c25      	ldr	r5, [r4, #64]	@ 0x40
 8001902:	6821      	ldr	r1, [r4, #0]
 8001904:	f425 6570 	bic.w	r5, r5, #3840	@ 0xf00
 8001908:	f025 0501 	bic.w	r5, r5, #1
 800190c:	f445 7580 	orr.w	r5, r5, #256	@ 0x100
 8001910:	6425      	str	r5, [r4, #64]	@ 0x40
 8001912:	6c23      	ldr	r3, [r4, #64]	@ 0x40
 8001914:	f423 1380 	bic.w	r3, r3, #1048576	@ 0x100000
 8001918:	6423      	str	r3, [r4, #64]	@ 0x40
 800191a:	68cb      	ldr	r3, [r1, #12]
 800191c:	019b      	lsls	r3, r3, #6
 800191e:	bf41      	itttt	mi
 8001920:	6c20      	ldrmi	r0, [r4, #64]	@ 0x40
 8001922:	f420 5040 	bicmi.w	r0, r0, #12288	@ 0x3000
 8001926:	f440 5080 	orrmi.w	r0, r0, #4096	@ 0x1000
 800192a:	6420      	strmi	r0, [r4, #64]	@ 0x40
 800192c:	6c23      	ldr	r3, [r4, #64]	@ 0x40
 800192e:	6ba0      	ldr	r0, [r4, #56]	@ 0x38
 8001930:	f413 5380 	ands.w	r3, r3, #4096	@ 0x1000
 8001934:	bf1c      	itt	ne
 8001936:	6c63      	ldrne	r3, [r4, #68]	@ 0x44
 8001938:	f023 0306 	bicne.w	r3, r3, #6
 800193c:	6463      	str	r3, [r4, #68]	@ 0x44
 800193e:	2300      	movs	r3, #0
 8001940:	f884 303c 	strb.w	r3, [r4, #60]	@ 0x3c
 8001944:	4b10      	ldr	r3, [pc, #64]	@ (8001988 <HAL_ADC_Start_DMA+0xb4>)
 8001946:	6283      	str	r3, [r0, #40]	@ 0x28
 8001948:	4b10      	ldr	r3, [pc, #64]	@ (800198c <HAL_ADC_Start_DMA+0xb8>)
 800194a:	62c3      	str	r3, [r0, #44]	@ 0x2c
 800194c:	4b10      	ldr	r3, [pc, #64]	@ (8001990 <HAL_ADC_Start_DMA+0xbc>)
 800194e:	6303      	str	r3, [r0, #48]	@ 0x30
 8001950:	231c      	movs	r3, #28
 8001952:	600b      	str	r3, [r1, #0]
 8001954:	684b      	ldr	r3, [r1, #4]
 8001956:	f043 0310 	orr.w	r3, r3, #16
 800195a:	604b      	str	r3, [r1, #4]
 800195c:	68cb      	ldr	r3, [r1, #12]
 800195e:	f043 0301 	orr.w	r3, r3, #1
 8001962:	60cb      	str	r3, [r1, #12]
 8001964:	463a      	mov	r2, r7
 8001966:	4643      	mov	r3, r8
 8001968:	3140      	adds	r1, #64	@ 0x40
 800196a:	f000 fb1f 	bl	8001fac <HAL_DMA_Start_IT>
 800196e:	6822      	ldr	r2, [r4, #0]
 8001970:	6893      	ldr	r3, [r2, #8]
 8001972:	f043 0304 	orr.w	r3, r3, #4
 8001976:	6093      	str	r3, [r2, #8]
 8001978:	4630      	mov	r0, r6
 800197a:	e8bd 81f0 	ldmia.w	sp!, {r4, r5, r6, r7, r8, pc}
 800197e:	f884 503c 	strb.w	r5, [r4, #60]	@ 0x3c
 8001982:	e7f9      	b.n	8001978 <HAL_ADC_Start_DMA+0xa4>
 8001984:	2602      	movs	r6, #2
 8001986:	e7f7      	b.n	8001978 <HAL_ADC_Start_DMA+0xa4>
 8001988:	08001665 	.word	0x08001665
 800198c:	0800165f 	.word	0x0800165f
 8001990:	08001649 	.word	0x08001649

08001994 <HAL_ADCEx_Calibration_Start>:
 8001994:	b5f8      	push	{r3, r4, r5, r6, r7, lr}
 8001996:	f890 303c 	ldrb.w	r3, [r0, #60]	@ 0x3c
 800199a:	2b01      	cmp	r3, #1
 800199c:	4604      	mov	r4, r0
 800199e:	460e      	mov	r6, r1
 80019a0:	d03c      	beq.n	8001a1c <HAL_ADCEx_Calibration_Start+0x88>
 80019a2:	2701      	movs	r7, #1
 80019a4:	f880 703c 	strb.w	r7, [r0, #60]	@ 0x3c
 80019a8:	f7ff fe1c 	bl	80015e4 <ADC_Disable>
 80019ac:	4605      	mov	r5, r0
 80019ae:	b9e0      	cbnz	r0, 80019ea <HAL_ADCEx_Calibration_Start+0x56>
 80019b0:	6823      	ldr	r3, [r4, #0]
 80019b2:	6427      	str	r7, [r4, #64]	@ 0x40
 80019b4:	689a      	ldr	r2, [r3, #8]
 80019b6:	f022 4280 	bic.w	r2, r2, #1073741824	@ 0x40000000
 80019ba:	609a      	str	r2, [r3, #8]
 80019bc:	42be      	cmp	r6, r7
 80019be:	bf02      	ittt	eq
 80019c0:	689a      	ldreq	r2, [r3, #8]
 80019c2:	f042 4280 	orreq.w	r2, r2, #1073741824	@ 0x40000000
 80019c6:	609a      	streq	r2, [r3, #8]
 80019c8:	689a      	ldr	r2, [r3, #8]
 80019ca:	f042 4200 	orr.w	r2, r2, #2147483648	@ 0x80000000
 80019ce:	609a      	str	r2, [r3, #8]
 80019d0:	f7ff fdea 	bl	80015a8 <HAL_GetTick>
 80019d4:	4606      	mov	r6, r0
 80019d6:	6823      	ldr	r3, [r4, #0]
 80019d8:	689b      	ldr	r3, [r3, #8]
 80019da:	2b00      	cmp	r3, #0
 80019dc:	db09      	blt.n	80019f2 <HAL_ADCEx_Calibration_Start+0x5e>
 80019de:	6c23      	ldr	r3, [r4, #64]	@ 0x40
 80019e0:	f023 0303 	bic.w	r3, r3, #3
 80019e4:	f043 0301 	orr.w	r3, r3, #1
 80019e8:	6423      	str	r3, [r4, #64]	@ 0x40
 80019ea:	2300      	movs	r3, #0
 80019ec:	f884 303c 	strb.w	r3, [r4, #60]	@ 0x3c
 80019f0:	e012      	b.n	8001a18 <HAL_ADCEx_Calibration_Start+0x84>
 80019f2:	f7ff fdd9 	bl	80015a8 <HAL_GetTick>
 80019f6:	1b80      	subs	r0, r0, r6
 80019f8:	280a      	cmp	r0, #10
 80019fa:	d9ec      	bls.n	80019d6 <HAL_ADCEx_Calibration_Start+0x42>
 80019fc:	6823      	ldr	r3, [r4, #0]
 80019fe:	689b      	ldr	r3, [r3, #8]
 8001a00:	2b00      	cmp	r3, #0
 8001a02:	dae8      	bge.n	80019d6 <HAL_ADCEx_Calibration_Start+0x42>
 8001a04:	6c23      	ldr	r3, [r4, #64]	@ 0x40
 8001a06:	f023 0312 	bic.w	r3, r3, #18
 8001a0a:	f043 0310 	orr.w	r3, r3, #16
 8001a0e:	6423      	str	r3, [r4, #64]	@ 0x40
 8001a10:	2300      	movs	r3, #0
 8001a12:	f884 303c 	strb.w	r3, [r4, #60]	@ 0x3c
 8001a16:	2501      	movs	r5, #1
 8001a18:	4628      	mov	r0, r5
 8001a1a:	bdf8      	pop	{r3, r4, r5, r6, r7, pc}
 8001a1c:	2502      	movs	r5, #2
 8001a1e:	e7fb      	b.n	8001a18 <HAL_ADCEx_Calibration_Start+0x84>

08001a20 <HAL_ADCEx_InjectedConvCpltCallback>:
 8001a20:	4770      	bx	lr

08001a22 <HAL_ADCEx_InjectedQueueOverflowCallback>:
 8001a22:	4770      	bx	lr

08001a24 <HAL_ADCEx_LevelOutOfWindow2Callback>:
 8001a24:	4770      	bx	lr

08001a26 <HAL_ADCEx_LevelOutOfWindow3Callback>:
 8001a26:	4770      	bx	lr

08001a28 <HAL_ADC_IRQHandler>:
 8001a28:	6803      	ldr	r3, [r0, #0]
 8001a2a:	b570      	push	{r4, r5, r6, lr}
 8001a2c:	681d      	ldr	r5, [r3, #0]
 8001a2e:	685e      	ldr	r6, [r3, #4]
 8001a30:	076a      	lsls	r2, r5, #29
 8001a32:	4604      	mov	r4, r0
 8001a34:	d501      	bpl.n	8001a3a <HAL_ADC_IRQHandler+0x12>
 8001a36:	0770      	lsls	r0, r6, #29
 8001a38:	d403      	bmi.n	8001a42 <HAL_ADC_IRQHandler+0x1a>
 8001a3a:	0729      	lsls	r1, r5, #28
 8001a3c:	d52b      	bpl.n	8001a96 <HAL_ADC_IRQHandler+0x6e>
 8001a3e:	0732      	lsls	r2, r6, #28
 8001a40:	d529      	bpl.n	8001a96 <HAL_ADC_IRQHandler+0x6e>
 8001a42:	6c22      	ldr	r2, [r4, #64]	@ 0x40
 8001a44:	06d0      	lsls	r0, r2, #27
 8001a46:	bf5e      	ittt	pl
 8001a48:	6c22      	ldrpl	r2, [r4, #64]	@ 0x40
 8001a4a:	f442 7200 	orrpl.w	r2, r2, #512	@ 0x200
 8001a4e:	6422      	strpl	r2, [r4, #64]	@ 0x40
 8001a50:	68d9      	ldr	r1, [r3, #12]
 8001a52:	68da      	ldr	r2, [r3, #12]
 8001a54:	f401 5100 	and.w	r1, r1, #8192	@ 0x2000
 8001a58:	f402 6240 	and.w	r2, r2, #3072	@ 0xc00
 8001a5c:	430a      	orrs	r2, r1
 8001a5e:	d114      	bne.n	8001a8a <HAL_ADC_IRQHandler+0x62>
 8001a60:	0729      	lsls	r1, r5, #28
 8001a62:	d512      	bpl.n	8001a8a <HAL_ADC_IRQHandler+0x62>
 8001a64:	689a      	ldr	r2, [r3, #8]
 8001a66:	0752      	lsls	r2, r2, #29
 8001a68:	f100 80ab 	bmi.w	8001bc2 <HAL_ADC_IRQHandler+0x19a>
 8001a6c:	685a      	ldr	r2, [r3, #4]
 8001a6e:	f022 020c 	bic.w	r2, r2, #12
 8001a72:	605a      	str	r2, [r3, #4]
 8001a74:	6c23      	ldr	r3, [r4, #64]	@ 0x40
 8001a76:	f423 7380 	bic.w	r3, r3, #256	@ 0x100
 8001a7a:	6423      	str	r3, [r4, #64]	@ 0x40
 8001a7c:	6c23      	ldr	r3, [r4, #64]	@ 0x40
 8001a7e:	04d8      	lsls	r0, r3, #19
 8001a80:	d403      	bmi.n	8001a8a <HAL_ADC_IRQHandler+0x62>
 8001a82:	6c23      	ldr	r3, [r4, #64]	@ 0x40
 8001a84:	f043 0301 	orr.w	r3, r3, #1
 8001a88:	6423      	str	r3, [r4, #64]	@ 0x40
 8001a8a:	4620      	mov	r0, r4
 8001a8c:	f7ff fda6 	bl	80015dc <HAL_ADC_ConvCpltCallback>
 8001a90:	6823      	ldr	r3, [r4, #0]
 8001a92:	220c      	movs	r2, #12
 8001a94:	601a      	str	r2, [r3, #0]
 8001a96:	06a9      	lsls	r1, r5, #26
 8001a98:	d501      	bpl.n	8001a9e <HAL_ADC_IRQHandler+0x76>
 8001a9a:	06b2      	lsls	r2, r6, #26
 8001a9c:	d403      	bmi.n	8001aa6 <HAL_ADC_IRQHandler+0x7e>
 8001a9e:	066b      	lsls	r3, r5, #25
 8001aa0:	d531      	bpl.n	8001b06 <HAL_ADC_IRQHandler+0xde>
 8001aa2:	0670      	lsls	r0, r6, #25
 8001aa4:	d52f      	bpl.n	8001b06 <HAL_ADC_IRQHandler+0xde>
 8001aa6:	6c23      	ldr	r3, [r4, #64]	@ 0x40
 8001aa8:	f443 5300 	orr.w	r3, r3, #8192	@ 0x2000
 8001aac:	6423      	str	r3, [r4, #64]	@ 0x40
 8001aae:	6823      	ldr	r3, [r4, #0]
 8001ab0:	68da      	ldr	r2, [r3, #12]
 8001ab2:	6cd9      	ldr	r1, [r3, #76]	@ 0x4c
 8001ab4:	f011 0fc0 	tst.w	r1, #192	@ 0xc0
 8001ab8:	d11f      	bne.n	8001afa <HAL_ADC_IRQHandler+0xd2>
 8001aba:	0191      	lsls	r1, r2, #6
 8001abc:	d506      	bpl.n	8001acc <HAL_ADC_IRQHandler+0xa4>
 8001abe:	68d9      	ldr	r1, [r3, #12]
 8001ac0:	f402 5200 	and.w	r2, r2, #8192	@ 0x2000
 8001ac4:	f401 6140 	and.w	r1, r1, #3072	@ 0xc00
 8001ac8:	4311      	orrs	r1, r2
 8001aca:	d116      	bne.n	8001afa <HAL_ADC_IRQHandler+0xd2>
 8001acc:	0668      	lsls	r0, r5, #25
 8001ace:	d514      	bpl.n	8001afa <HAL_ADC_IRQHandler+0xd2>
 8001ad0:	68da      	ldr	r2, [r3, #12]
 8001ad2:	0291      	lsls	r1, r2, #10
 8001ad4:	d411      	bmi.n	8001afa <HAL_ADC_IRQHandler+0xd2>
 8001ad6:	689a      	ldr	r2, [r3, #8]
 8001ad8:	0712      	lsls	r2, r2, #28
 8001ada:	d47b      	bmi.n	8001bd4 <HAL_ADC_IRQHandler+0x1ac>
 8001adc:	685a      	ldr	r2, [r3, #4]
 8001ade:	f022 0260 	bic.w	r2, r2, #96	@ 0x60
 8001ae2:	605a      	str	r2, [r3, #4]
 8001ae4:	6c23      	ldr	r3, [r4, #64]	@ 0x40
 8001ae6:	f423 5380 	bic.w	r3, r3, #4096	@ 0x1000
 8001aea:	6423      	str	r3, [r4, #64]	@ 0x40
 8001aec:	6c23      	ldr	r3, [r4, #64]	@ 0x40
 8001aee:	05d8      	lsls	r0, r3, #23
 8001af0:	d403      	bmi.n	8001afa <HAL_ADC_IRQHandler+0xd2>
 8001af2:	6c23      	ldr	r3, [r4, #64]	@ 0x40
 8001af4:	f043 0301 	orr.w	r3, r3, #1
 8001af8:	6423      	str	r3, [r4, #64]	@ 0x40
 8001afa:	4620      	mov	r0, r4
 8001afc:	f7ff ff90 	bl	8001a20 <HAL_ADCEx_InjectedConvCpltCallback>
 8001b00:	6823      	ldr	r3, [r4, #0]
 8001b02:	2260      	movs	r2, #96	@ 0x60
 8001b04:	601a      	str	r2, [r3, #0]
 8001b06:	0629      	lsls	r1, r5, #24
 8001b08:	d50b      	bpl.n	8001b22 <HAL_ADC_IRQHandler+0xfa>
 8001b0a:	0632      	lsls	r2, r6, #24
 8001b0c:	d509      	bpl.n	8001b22 <HAL_ADC_IRQHandler+0xfa>
 8001b0e:	6c23      	ldr	r3, [r4, #64]	@ 0x40
 8001b10:	f443 3380 	orr.w	r3, r3, #65536	@ 0x10000
 8001b14:	6423      	str	r3, [r4, #64]	@ 0x40
 8001b16:	4620      	mov	r0, r4
 8001b18:	f7ff fd62 	bl	80015e0 <HAL_ADC_LevelOutOfWindowCallback>
 8001b1c:	6823      	ldr	r3, [r4, #0]
 8001b1e:	2280      	movs	r2, #128	@ 0x80
 8001b20:	601a      	str	r2, [r3, #0]
 8001b22:	05eb      	lsls	r3, r5, #23
 8001b24:	d50c      	bpl.n	8001b40 <HAL_ADC_IRQHandler+0x118>
 8001b26:	05f0      	lsls	r0, r6, #23
 8001b28:	d50a      	bpl.n	8001b40 <HAL_ADC_IRQHandler+0x118>
 8001b2a:	6c23      	ldr	r3, [r4, #64]	@ 0x40
 8001b2c:	f443 3300 	orr.w	r3, r3, #131072	@ 0x20000
 8001b30:	6423      	str	r3, [r4, #64]	@ 0x40
 8001b32:	4620      	mov	r0, r4
 8001b34:	f7ff ff76 	bl	8001a24 <HAL_ADCEx_LevelOutOfWindow2Callback>
 8001b38:	6823      	ldr	r3, [r4, #0]
 8001b3a:	f44f 7280 	mov.w	r2, #256	@ 0x100
 8001b3e:	601a      	str	r2, [r3, #0]
 8001b40:	05a9      	lsls	r1, r5, #22
 8001b42:	d50c      	bpl.n	8001b5e <HAL_ADC_IRQHandler+0x136>
 8001b44:	05b2      	lsls	r2, r6, #22
 8001b46:	d50a      	bpl.n	8001b5e <HAL_ADC_IRQHandler+0x136>
 8001b48:	6c23      	ldr	r3, [r4, #64]	@ 0x40
 8001b4a:	f443 2380 	orr.w	r3, r3, #262144	@ 0x40000
 8001b4e:	6423      	str	r3, [r4, #64]	@ 0x40
 8001b50:	4620      	mov	r0, r4
 8001b52:	f7ff ff68 	bl	8001a26 <HAL_ADCEx_LevelOutOfWindow3Callback>
 8001b56:	6823      	ldr	r3, [r4, #0]
 8001b58:	f44f 7200 	mov.w	r2, #512	@ 0x200
 8001b5c:	601a      	str	r2, [r3, #0]
 8001b5e:	06eb      	lsls	r3, r5, #27
 8001b60:	d51b      	bpl.n	8001b9a <HAL_ADC_IRQHandler+0x172>
 8001b62:	06f0      	lsls	r0, r6, #27
 8001b64:	d519      	bpl.n	8001b9a <HAL_ADC_IRQHandler+0x172>
 8001b66:	6b63      	ldr	r3, [r4, #52]	@ 0x34
 8001b68:	2b01      	cmp	r3, #1
 8001b6a:	d008      	beq.n	8001b7e <HAL_ADC_IRQHandler+0x156>
 8001b6c:	4b20      	ldr	r3, [pc, #128]	@ (8001bf0 <HAL_ADC_IRQHandler+0x1c8>)
 8001b6e:	689a      	ldr	r2, [r3, #8]
 8001b70:	06d1      	lsls	r1, r2, #27
 8001b72:	d138      	bne.n	8001be6 <HAL_ADC_IRQHandler+0x1be>
 8001b74:	6823      	ldr	r3, [r4, #0]
 8001b76:	68db      	ldr	r3, [r3, #12]
 8001b78:	f013 0f01 	tst.w	r3, #1
 8001b7c:	d00a      	beq.n	8001b94 <HAL_ADC_IRQHandler+0x16c>
 8001b7e:	6c23      	ldr	r3, [r4, #64]	@ 0x40
 8001b80:	f443 6380 	orr.w	r3, r3, #1024	@ 0x400
 8001b84:	6423      	str	r3, [r4, #64]	@ 0x40
 8001b86:	6c63      	ldr	r3, [r4, #68]	@ 0x44
 8001b88:	f043 0302 	orr.w	r3, r3, #2
 8001b8c:	6463      	str	r3, [r4, #68]	@ 0x44
 8001b8e:	4620      	mov	r0, r4
 8001b90:	f7ff fd27 	bl	80015e2 <HAL_ADC_ErrorCallback>
 8001b94:	6823      	ldr	r3, [r4, #0]
 8001b96:	2210      	movs	r2, #16
 8001b98:	601a      	str	r2, [r3, #0]
 8001b9a:	056a      	lsls	r2, r5, #21
 8001b9c:	d510      	bpl.n	8001bc0 <HAL_ADC_IRQHandler+0x198>
 8001b9e:	0573      	lsls	r3, r6, #21
 8001ba0:	d50e      	bpl.n	8001bc0 <HAL_ADC_IRQHandler+0x198>
 8001ba2:	6c23      	ldr	r3, [r4, #64]	@ 0x40
 8001ba4:	f443 4380 	orr.w	r3, r3, #16384	@ 0x4000
 8001ba8:	6423      	str	r3, [r4, #64]	@ 0x40
 8001baa:	6c63      	ldr	r3, [r4, #68]	@ 0x44
 8001bac:	f043 0308 	orr.w	r3, r3, #8
 8001bb0:	6463      	str	r3, [r4, #68]	@ 0x44
 8001bb2:	6823      	ldr	r3, [r4, #0]
 8001bb4:	f44f 6280 	mov.w	r2, #1024	@ 0x400
 8001bb8:	601a      	str	r2, [r3, #0]
 8001bba:	4620      	mov	r0, r4
 8001bbc:	f7ff ff31 	bl	8001a22 <HAL_ADCEx_InjectedQueueOverflowCallback>
 8001bc0:	bd70      	pop	{r4, r5, r6, pc}
 8001bc2:	6c23      	ldr	r3, [r4, #64]	@ 0x40
 8001bc4:	f043 0310 	orr.w	r3, r3, #16
 8001bc8:	6423      	str	r3, [r4, #64]	@ 0x40
 8001bca:	6c63      	ldr	r3, [r4, #68]	@ 0x44
 8001bcc:	f043 0301 	orr.w	r3, r3, #1
 8001bd0:	6463      	str	r3, [r4, #68]	@ 0x44
 8001bd2:	e75a      	b.n	8001a8a <HAL_ADC_IRQHandler+0x62>
 8001bd4:	6c23      	ldr	r3, [r4, #64]	@ 0x40
 8001bd6:	f043 0310 	orr.w	r3, r3, #16
 8001bda:	6423      	str	r3, [r4, #64]	@ 0x40
 8001bdc:	6c63      	ldr	r3, [r4, #68]	@ 0x44
 8001bde:	f043 0301 	orr.w	r3, r3, #1
 8001be2:	6463      	str	r3, [r4, #68]	@ 0x44
 8001be4:	e789      	b.n	8001afa <HAL_ADC_IRQHandler+0xd2>
 8001be6:	689b      	ldr	r3, [r3, #8]
 8001be8:	f413 4f40 	tst.w	r3, #49152	@ 0xc000
 8001bec:	e7c6      	b.n	8001b7c <HAL_ADC_IRQHandler+0x154>
 8001bee:	bf00      	nop
 8001bf0:	50000300 	.word	0x50000300

08001bf4 <HAL_ADC_ConfigChannel>:
 8001bf4:	b5f7      	push	{r0, r1, r2, r4, r5, r6, r7, lr}
 8001bf6:	2300      	movs	r3, #0
 8001bf8:	9301      	str	r3, [sp, #4]
 8001bfa:	f890 303c 	ldrb.w	r3, [r0, #60]	@ 0x3c
 8001bfe:	2b01      	cmp	r3, #1
 8001c00:	4605      	mov	r5, r0
 8001c02:	f000 8137 	beq.w	8001e74 <HAL_ADC_ConfigChannel+0x280>
 8001c06:	2301      	movs	r3, #1
 8001c08:	f880 303c 	strb.w	r3, [r0, #60]	@ 0x3c
 8001c0c:	6803      	ldr	r3, [r0, #0]
 8001c0e:	689a      	ldr	r2, [r3, #8]
 8001c10:	0754      	lsls	r4, r2, #29
 8001c12:	f100 8129 	bmi.w	8001e68 <HAL_ADC_ConfigChannel+0x274>
 8001c16:	6848      	ldr	r0, [r1, #4]
 8001c18:	680a      	ldr	r2, [r1, #0]
 8001c1a:	2406      	movs	r4, #6
 8001c1c:	2804      	cmp	r0, #4
 8001c1e:	fb00 f404 	mul.w	r4, r0, r4
 8001c22:	d82a      	bhi.n	8001c7a <HAL_ADC_ConfigChannel+0x86>
 8001c24:	6b18      	ldr	r0, [r3, #48]	@ 0x30
 8001c26:	261f      	movs	r6, #31
 8001c28:	40a6      	lsls	r6, r4
 8001c2a:	ea20 0006 	bic.w	r0, r0, r6
 8001c2e:	fa02 f404 	lsl.w	r4, r2, r4
 8001c32:	4320      	orrs	r0, r4
 8001c34:	6318      	str	r0, [r3, #48]	@ 0x30
 8001c36:	6898      	ldr	r0, [r3, #8]
 8001c38:	f010 0f0c 	tst.w	r0, #12
 8001c3c:	d152      	bne.n	8001ce4 <HAL_ADC_ConfigChannel+0xf0>
 8001c3e:	2a09      	cmp	r2, #9
 8001c40:	6888      	ldr	r0, [r1, #8]
 8001c42:	eb02 0442 	add.w	r4, r2, r2, lsl #1
 8001c46:	f04f 0607 	mov.w	r6, #7
 8001c4a:	d93b      	bls.n	8001cc4 <HAL_ADC_ConfigChannel+0xd0>
 8001c4c:	699f      	ldr	r7, [r3, #24]
 8001c4e:	3c1e      	subs	r4, #30
 8001c50:	40a6      	lsls	r6, r4
 8001c52:	ea27 0606 	bic.w	r6, r7, r6
 8001c56:	40a0      	lsls	r0, r4
 8001c58:	4330      	orrs	r0, r6
 8001c5a:	6198      	str	r0, [r3, #24]
 8001c5c:	68d8      	ldr	r0, [r3, #12]
 8001c5e:	694e      	ldr	r6, [r1, #20]
 8001c60:	f3c0 00c1 	ubfx	r0, r0, #3, #2
 8001c64:	0040      	lsls	r0, r0, #1
 8001c66:	4086      	lsls	r6, r0
 8001c68:	6908      	ldr	r0, [r1, #16]
 8001c6a:	3801      	subs	r0, #1
 8001c6c:	0694      	lsls	r4, r2, #26
 8001c6e:	2803      	cmp	r0, #3
 8001c70:	d861      	bhi.n	8001d36 <HAL_ADC_ConfigChannel+0x142>
 8001c72:	e8df f000 	tbb	[pc, r0]
 8001c76:	452f      	.short	0x452f
 8001c78:	574e      	.short	0x574e
 8001c7a:	2809      	cmp	r0, #9
 8001c7c:	d80a      	bhi.n	8001c94 <HAL_ADC_ConfigChannel+0xa0>
 8001c7e:	6b58      	ldr	r0, [r3, #52]	@ 0x34
 8001c80:	3c1e      	subs	r4, #30
 8001c82:	261f      	movs	r6, #31
 8001c84:	40a6      	lsls	r6, r4
 8001c86:	ea20 0006 	bic.w	r0, r0, r6
 8001c8a:	fa02 f404 	lsl.w	r4, r2, r4
 8001c8e:	4320      	orrs	r0, r4
 8001c90:	6358      	str	r0, [r3, #52]	@ 0x34
 8001c92:	e7d0      	b.n	8001c36 <HAL_ADC_ConfigChannel+0x42>
 8001c94:	280e      	cmp	r0, #14
 8001c96:	f04f 001f 	mov.w	r0, #31
 8001c9a:	d809      	bhi.n	8001cb0 <HAL_ADC_ConfigChannel+0xbc>
 8001c9c:	6b9e      	ldr	r6, [r3, #56]	@ 0x38
 8001c9e:	3c3c      	subs	r4, #60	@ 0x3c
 8001ca0:	40a0      	lsls	r0, r4
 8001ca2:	ea26 0000 	bic.w	r0, r6, r0
 8001ca6:	fa02 f404 	lsl.w	r4, r2, r4
 8001caa:	4320      	orrs	r0, r4
 8001cac:	6398      	str	r0, [r3, #56]	@ 0x38
 8001cae:	e7c2      	b.n	8001c36 <HAL_ADC_ConfigChannel+0x42>
 8001cb0:	6bde      	ldr	r6, [r3, #60]	@ 0x3c
 8001cb2:	3c5a      	subs	r4, #90	@ 0x5a
 8001cb4:	40a0      	lsls	r0, r4
 8001cb6:	ea26 0000 	bic.w	r0, r6, r0
 8001cba:	fa02 f404 	lsl.w	r4, r2, r4
 8001cbe:	4320      	orrs	r0, r4
 8001cc0:	63d8      	str	r0, [r3, #60]	@ 0x3c
 8001cc2:	e7b8      	b.n	8001c36 <HAL_ADC_ConfigChannel+0x42>
 8001cc4:	695f      	ldr	r7, [r3, #20]
 8001cc6:	40a6      	lsls	r6, r4
 8001cc8:	ea27 0606 	bic.w	r6, r7, r6
 8001ccc:	40a0      	lsls	r0, r4
 8001cce:	4330      	orrs	r0, r6
 8001cd0:	6158      	str	r0, [r3, #20]
 8001cd2:	e7c3      	b.n	8001c5c <HAL_ADC_ConfigChannel+0x68>
 8001cd4:	6e1f      	ldr	r7, [r3, #96]	@ 0x60
 8001cd6:	4868      	ldr	r0, [pc, #416]	@ (8001e78 <HAL_ADC_ConfigChannel+0x284>)
 8001cd8:	4038      	ands	r0, r7
 8001cda:	4320      	orrs	r0, r4
 8001cdc:	4330      	orrs	r0, r6
 8001cde:	f040 4000 	orr.w	r0, r0, #2147483648	@ 0x80000000
 8001ce2:	6618      	str	r0, [r3, #96]	@ 0x60
 8001ce4:	6898      	ldr	r0, [r3, #8]
 8001ce6:	f000 0003 	and.w	r0, r0, #3
 8001cea:	2801      	cmp	r0, #1
 8001cec:	d147      	bne.n	8001d7e <HAL_ADC_ConfigChannel+0x18a>
 8001cee:	6818      	ldr	r0, [r3, #0]
 8001cf0:	07c0      	lsls	r0, r0, #31
 8001cf2:	d544      	bpl.n	8001d7e <HAL_ADC_ConfigChannel+0x18a>
 8001cf4:	2000      	movs	r0, #0
 8001cf6:	2300      	movs	r3, #0
 8001cf8:	f885 303c 	strb.w	r3, [r5, #60]	@ 0x3c
 8001cfc:	b003      	add	sp, #12
 8001cfe:	bdf0      	pop	{r4, r5, r6, r7, pc}
 8001d00:	6e5f      	ldr	r7, [r3, #100]	@ 0x64
 8001d02:	485d      	ldr	r0, [pc, #372]	@ (8001e78 <HAL_ADC_ConfigChannel+0x284>)
 8001d04:	4038      	ands	r0, r7
 8001d06:	4320      	orrs	r0, r4
 8001d08:	4330      	orrs	r0, r6
 8001d0a:	f040 4000 	orr.w	r0, r0, #2147483648	@ 0x80000000
 8001d0e:	6658      	str	r0, [r3, #100]	@ 0x64
 8001d10:	e7e8      	b.n	8001ce4 <HAL_ADC_ConfigChannel+0xf0>
 8001d12:	6e9f      	ldr	r7, [r3, #104]	@ 0x68
 8001d14:	4858      	ldr	r0, [pc, #352]	@ (8001e78 <HAL_ADC_ConfigChannel+0x284>)
 8001d16:	4038      	ands	r0, r7
 8001d18:	4320      	orrs	r0, r4
 8001d1a:	4330      	orrs	r0, r6
 8001d1c:	f040 4000 	orr.w	r0, r0, #2147483648	@ 0x80000000
 8001d20:	6698      	str	r0, [r3, #104]	@ 0x68
 8001d22:	e7df      	b.n	8001ce4 <HAL_ADC_ConfigChannel+0xf0>
 8001d24:	6edf      	ldr	r7, [r3, #108]	@ 0x6c
 8001d26:	4854      	ldr	r0, [pc, #336]	@ (8001e78 <HAL_ADC_ConfigChannel+0x284>)
 8001d28:	4038      	ands	r0, r7
 8001d2a:	4320      	orrs	r0, r4
 8001d2c:	4330      	orrs	r0, r6
 8001d2e:	f040 4000 	orr.w	r0, r0, #2147483648	@ 0x80000000
 8001d32:	66d8      	str	r0, [r3, #108]	@ 0x6c
 8001d34:	e7d6      	b.n	8001ce4 <HAL_ADC_ConfigChannel+0xf0>
 8001d36:	6e18      	ldr	r0, [r3, #96]	@ 0x60
 8001d38:	f000 40f8 	and.w	r0, r0, #2080374784	@ 0x7c000000
 8001d3c:	42a0      	cmp	r0, r4
 8001d3e:	bf02      	ittt	eq
 8001d40:	6e18      	ldreq	r0, [r3, #96]	@ 0x60
 8001d42:	f020 4000 	biceq.w	r0, r0, #2147483648	@ 0x80000000
 8001d46:	6618      	streq	r0, [r3, #96]	@ 0x60
 8001d48:	6e58      	ldr	r0, [r3, #100]	@ 0x64
 8001d4a:	f000 40f8 	and.w	r0, r0, #2080374784	@ 0x7c000000
 8001d4e:	42a0      	cmp	r0, r4
 8001d50:	bf02      	ittt	eq
 8001d52:	6e58      	ldreq	r0, [r3, #100]	@ 0x64
 8001d54:	f020 4000 	biceq.w	r0, r0, #2147483648	@ 0x80000000
 8001d58:	6658      	streq	r0, [r3, #100]	@ 0x64
 8001d5a:	6e98      	ldr	r0, [r3, #104]	@ 0x68
 8001d5c:	f000 40f8 	and.w	r0, r0, #2080374784	@ 0x7c000000
 8001d60:	42a0      	cmp	r0, r4
 8001d62:	bf02      	ittt	eq
 8001d64:	6e98      	ldreq	r0, [r3, #104]	@ 0x68
 8001d66:	f020 4000 	biceq.w	r0, r0, #2147483648	@ 0x80000000
 8001d6a:	6698      	streq	r0, [r3, #104]	@ 0x68
 8001d6c:	6ed8      	ldr	r0, [r3, #108]	@ 0x6c
 8001d6e:	f000 40f8 	and.w	r0, r0, #2080374784	@ 0x7c000000
 8001d72:	42a0      	cmp	r0, r4
 8001d74:	d1b6      	bne.n	8001ce4 <HAL_ADC_ConfigChannel+0xf0>
 8001d76:	6ed8      	ldr	r0, [r3, #108]	@ 0x6c
 8001d78:	f020 4000 	bic.w	r0, r0, #2147483648	@ 0x80000000
 8001d7c:	e7d9      	b.n	8001d32 <HAL_ADC_ConfigChannel+0x13e>
 8001d7e:	68cc      	ldr	r4, [r1, #12]
 8001d80:	2001      	movs	r0, #1
 8001d82:	2c01      	cmp	r4, #1
 8001d84:	fa00 f002 	lsl.w	r0, r0, r2
 8001d88:	d02c      	beq.n	8001de4 <HAL_ADC_ConfigChannel+0x1f0>
 8001d8a:	f8d3 10b0 	ldr.w	r1, [r3, #176]	@ 0xb0
 8001d8e:	ea21 0100 	bic.w	r1, r1, r0
 8001d92:	f8c3 10b0 	str.w	r1, [r3, #176]	@ 0xb0
 8001d96:	2a10      	cmp	r2, #16
 8001d98:	d146      	bne.n	8001e28 <HAL_ADC_ConfigChannel+0x234>
 8001d9a:	4938      	ldr	r1, [pc, #224]	@ (8001e7c <HAL_ADC_ConfigChannel+0x288>)
 8001d9c:	6889      	ldr	r1, [r1, #8]
 8001d9e:	f411 0f00 	tst.w	r1, #8388608	@ 0x800000
 8001da2:	d1a7      	bne.n	8001cf4 <HAL_ADC_ConfigChannel+0x100>
 8001da4:	6899      	ldr	r1, [r3, #8]
 8001da6:	f001 0103 	and.w	r1, r1, #3
 8001daa:	2901      	cmp	r1, #1
 8001dac:	d102      	bne.n	8001db4 <HAL_ADC_ConfigChannel+0x1c0>
 8001dae:	6819      	ldr	r1, [r3, #0]
 8001db0:	07c9      	lsls	r1, r1, #31
 8001db2:	d459      	bmi.n	8001e68 <HAL_ADC_ConfigChannel+0x274>
 8001db4:	2a10      	cmp	r2, #16
 8001db6:	d146      	bne.n	8001e46 <HAL_ADC_ConfigChannel+0x252>
 8001db8:	f1b3 4fa0 	cmp.w	r3, #1342177280	@ 0x50000000
 8001dbc:	d19a      	bne.n	8001cf4 <HAL_ADC_ConfigChannel+0x100>
 8001dbe:	4a2f      	ldr	r2, [pc, #188]	@ (8001e7c <HAL_ADC_ConfigChannel+0x288>)
 8001dc0:	6893      	ldr	r3, [r2, #8]
 8001dc2:	f443 0300 	orr.w	r3, r3, #8388608	@ 0x800000
 8001dc6:	6093      	str	r3, [r2, #8]
 8001dc8:	4b2d      	ldr	r3, [pc, #180]	@ (8001e80 <HAL_ADC_ConfigChannel+0x28c>)
 8001dca:	4a2e      	ldr	r2, [pc, #184]	@ (8001e84 <HAL_ADC_ConfigChannel+0x290>)
 8001dcc:	681b      	ldr	r3, [r3, #0]
 8001dce:	fbb3 f3f2 	udiv	r3, r3, r2
 8001dd2:	220a      	movs	r2, #10
 8001dd4:	4353      	muls	r3, r2
 8001dd6:	9301      	str	r3, [sp, #4]
 8001dd8:	9b01      	ldr	r3, [sp, #4]
 8001dda:	2b00      	cmp	r3, #0
 8001ddc:	d08a      	beq.n	8001cf4 <HAL_ADC_ConfigChannel+0x100>
 8001dde:	9b01      	ldr	r3, [sp, #4]
 8001de0:	3b01      	subs	r3, #1
 8001de2:	e7f8      	b.n	8001dd6 <HAL_ADC_ConfigChannel+0x1e2>
 8001de4:	f8d3 40b0 	ldr.w	r4, [r3, #176]	@ 0xb0
 8001de8:	2a09      	cmp	r2, #9
 8001dea:	ea40 0004 	orr.w	r0, r0, r4
 8001dee:	f8c3 00b0 	str.w	r0, [r3, #176]	@ 0xb0
 8001df2:	688c      	ldr	r4, [r1, #8]
 8001df4:	d90c      	bls.n	8001e10 <HAL_ADC_ConfigChannel+0x21c>
 8001df6:	eb02 0142 	add.w	r1, r2, r2, lsl #1
 8001dfa:	6998      	ldr	r0, [r3, #24]
 8001dfc:	391b      	subs	r1, #27
 8001dfe:	2607      	movs	r6, #7
 8001e00:	408e      	lsls	r6, r1
 8001e02:	ea20 0006 	bic.w	r0, r0, r6
 8001e06:	fa04 f101 	lsl.w	r1, r4, r1
 8001e0a:	4301      	orrs	r1, r0
 8001e0c:	6199      	str	r1, [r3, #24]
 8001e0e:	e7c2      	b.n	8001d96 <HAL_ADC_ConfigChannel+0x1a2>
 8001e10:	1c50      	adds	r0, r2, #1
 8001e12:	6959      	ldr	r1, [r3, #20]
 8001e14:	eb00 0040 	add.w	r0, r0, r0, lsl #1
 8001e18:	2207      	movs	r2, #7
 8001e1a:	4082      	lsls	r2, r0
 8001e1c:	ea21 0202 	bic.w	r2, r1, r2
 8001e20:	4084      	lsls	r4, r0
 8001e22:	4322      	orrs	r2, r4
 8001e24:	615a      	str	r2, [r3, #20]
 8001e26:	e765      	b.n	8001cf4 <HAL_ADC_ConfigChannel+0x100>
 8001e28:	2a11      	cmp	r2, #17
 8001e2a:	d104      	bne.n	8001e36 <HAL_ADC_ConfigChannel+0x242>
 8001e2c:	4913      	ldr	r1, [pc, #76]	@ (8001e7c <HAL_ADC_ConfigChannel+0x288>)
 8001e2e:	6889      	ldr	r1, [r1, #8]
 8001e30:	f011 7f80 	tst.w	r1, #16777216	@ 0x1000000
 8001e34:	e7b5      	b.n	8001da2 <HAL_ADC_ConfigChannel+0x1ae>
 8001e36:	2a12      	cmp	r2, #18
 8001e38:	f47f af5c 	bne.w	8001cf4 <HAL_ADC_ConfigChannel+0x100>
 8001e3c:	490f      	ldr	r1, [pc, #60]	@ (8001e7c <HAL_ADC_ConfigChannel+0x288>)
 8001e3e:	6889      	ldr	r1, [r1, #8]
 8001e40:	f411 0f80 	tst.w	r1, #4194304	@ 0x400000
 8001e44:	e7ad      	b.n	8001da2 <HAL_ADC_ConfigChannel+0x1ae>
 8001e46:	2a11      	cmp	r2, #17
 8001e48:	d109      	bne.n	8001e5e <HAL_ADC_ConfigChannel+0x26a>
 8001e4a:	f1b3 4fa0 	cmp.w	r3, #1342177280	@ 0x50000000
 8001e4e:	f47f af51 	bne.w	8001cf4 <HAL_ADC_ConfigChannel+0x100>
 8001e52:	4a0a      	ldr	r2, [pc, #40]	@ (8001e7c <HAL_ADC_ConfigChannel+0x288>)
 8001e54:	6893      	ldr	r3, [r2, #8]
 8001e56:	f043 7380 	orr.w	r3, r3, #16777216	@ 0x1000000
 8001e5a:	6093      	str	r3, [r2, #8]
 8001e5c:	e74a      	b.n	8001cf4 <HAL_ADC_ConfigChannel+0x100>
 8001e5e:	4a07      	ldr	r2, [pc, #28]	@ (8001e7c <HAL_ADC_ConfigChannel+0x288>)
 8001e60:	6893      	ldr	r3, [r2, #8]
 8001e62:	f443 0380 	orr.w	r3, r3, #4194304	@ 0x400000
 8001e66:	e7f8      	b.n	8001e5a <HAL_ADC_ConfigChannel+0x266>
 8001e68:	6c2b      	ldr	r3, [r5, #64]	@ 0x40
 8001e6a:	f043 0320 	orr.w	r3, r3, #32
 8001e6e:	642b      	str	r3, [r5, #64]	@ 0x40
 8001e70:	2001      	movs	r0, #1
 8001e72:	e740      	b.n	8001cf6 <HAL_ADC_ConfigChannel+0x102>
 8001e74:	2002      	movs	r0, #2
 8001e76:	e741      	b.n	8001cfc <HAL_ADC_ConfigChannel+0x108>
 8001e78:	83fff000 	.word	0x83fff000
 8001e7c:	50000300 	.word	0x50000300
 8001e80:	20000014 	.word	0x20000014
 8001e84:	000f4240 	.word	0x000f4240

08001e88 <HAL_NVIC_SetPriorityGrouping>:
 8001e88:	4907      	ldr	r1, [pc, #28]	@ (8001ea8 <HAL_NVIC_SetPriorityGrouping+0x20>)
 8001e8a:	68ca      	ldr	r2, [r1, #12]
 8001e8c:	f422 62e0 	bic.w	r2, r2, #1792	@ 0x700
 8001e90:	0203      	lsls	r3, r0, #8
 8001e92:	0412      	lsls	r2, r2, #16
 8001e94:	f403 63e0 	and.w	r3, r3, #1792	@ 0x700
 8001e98:	0c12      	lsrs	r2, r2, #16
 8001e9a:	4313      	orrs	r3, r2
 8001e9c:	f043 63bf 	orr.w	r3, r3, #100139008	@ 0x5f80000
 8001ea0:	f443 3300 	orr.w	r3, r3, #131072	@ 0x20000
 8001ea4:	60cb      	str	r3, [r1, #12]
 8001ea6:	4770      	bx	lr
 8001ea8:	e000ed00 	.word	0xe000ed00

08001eac <HAL_NVIC_SetPriority>:
 8001eac:	4b16      	ldr	r3, [pc, #88]	@ (8001f08 <HAL_NVIC_SetPriority+0x5c>)
 8001eae:	b530      	push	{r4, r5, lr}
 8001eb0:	68dc      	ldr	r4, [r3, #12]
 8001eb2:	f3c4 2402 	ubfx	r4, r4, #8, #3
 8001eb6:	f1c4 0307 	rsb	r3, r4, #7
 8001eba:	1d25      	adds	r5, r4, #4
 8001ebc:	2b04      	cmp	r3, #4
 8001ebe:	bf28      	it	cs
 8001ec0:	2304      	movcs	r3, #4
 8001ec2:	2d06      	cmp	r5, #6
 8001ec4:	f04f 35ff 	mov.w	r5, #4294967295
 8001ec8:	bf8c      	ite	hi
 8001eca:	3c03      	subhi	r4, #3
 8001ecc:	2400      	movls	r4, #0
 8001ece:	fa05 f303 	lsl.w	r3, r5, r3
 8001ed2:	ea21 0303 	bic.w	r3, r1, r3
 8001ed6:	40a5      	lsls	r5, r4
 8001ed8:	ea22 0205 	bic.w	r2, r2, r5
 8001edc:	40a3      	lsls	r3, r4
 8001ede:	2800      	cmp	r0, #0
 8001ee0:	ea43 0302 	orr.w	r3, r3, r2
 8001ee4:	bfac      	ite	ge
 8001ee6:	f100 4060 	addge.w	r0, r0, #3758096384	@ 0xe0000000
 8001eea:	4a08      	ldrlt	r2, [pc, #32]	@ (8001f0c <HAL_NVIC_SetPriority+0x60>)
 8001eec:	ea4f 1303 	mov.w	r3, r3, lsl #4
 8001ef0:	bfb8      	it	lt
 8001ef2:	f000 000f 	andlt.w	r0, r0, #15
 8001ef6:	b2db      	uxtb	r3, r3
 8001ef8:	bfaa      	itet	ge
 8001efa:	f500 4061 	addge.w	r0, r0, #57600	@ 0xe100
 8001efe:	5413      	strblt	r3, [r2, r0]
 8001f00:	f880 3300 	strbge.w	r3, [r0, #768]	@ 0x300
 8001f04:	bd30      	pop	{r4, r5, pc}
 8001f06:	bf00      	nop
 8001f08:	e000ed00 	.word	0xe000ed00
 8001f0c:	e000ed14 	.word	0xe000ed14

08001f10 <HAL_NVIC_EnableIRQ>:
 8001f10:	2800      	cmp	r0, #0
 8001f12:	db07      	blt.n	8001f24 <HAL_NVIC_EnableIRQ+0x14>
 8001f14:	0941      	lsrs	r1, r0, #5
 8001f16:	4a04      	ldr	r2, [pc, #16]	@ (8001f28 <HAL_NVIC_EnableIRQ+0x18>)
 8001f18:	f000 001f 	and.w	r0, r0, #31
 8001f1c:	2301      	movs	r3, #1
 8001f1e:	4083      	lsls	r3, r0
 8001f20:	f842 3021 	str.w	r3, [r2, r1, lsl #2]
 8001f24:	4770      	bx	lr
 8001f26:	bf00      	nop
 8001f28:	e000e100 	.word	0xe000e100

08001f2c <HAL_SYSTICK_Config>:
 8001f2c:	3801      	subs	r0, #1
 8001f2e:	f1b0 7f80 	cmp.w	r0, #16777216	@ 0x1000000
 8001f32:	d20b      	bcs.n	8001f4c <HAL_SYSTICK_Config+0x20>
 8001f34:	f04f 23e0 	mov.w	r3, #3758153728	@ 0xe000e000
 8001f38:	4a05      	ldr	r2, [pc, #20]	@ (8001f50 <HAL_SYSTICK_Config+0x24>)
 8001f3a:	6158      	str	r0, [r3, #20]
 8001f3c:	21f0      	movs	r1, #240	@ 0xf0
 8001f3e:	f882 1023 	strb.w	r1, [r2, #35]	@ 0x23
 8001f42:	2000      	movs	r0, #0
 8001f44:	2207      	movs	r2, #7
 8001f46:	6198      	str	r0, [r3, #24]
 8001f48:	611a      	str	r2, [r3, #16]
 8001f4a:	4770      	bx	lr
 8001f4c:	2001      	movs	r0, #1
 8001f4e:	4770      	bx	lr
 8001f50:	e000ed00 	.word	0xe000ed00

08001f54 <HAL_DMA_Init>:
 8001f54:	b510      	push	{r4, lr}
 8001f56:	4603      	mov	r3, r0
 8001f58:	b308      	cbz	r0, 8001f9e <HAL_DMA_Init+0x4a>
 8001f5a:	e9d3 2401 	ldrd	r2, r4, [r3, #4]
 8001f5e:	4322      	orrs	r2, r4
 8001f60:	68dc      	ldr	r4, [r3, #12]
 8001f62:	6801      	ldr	r1, [r0, #0]
 8001f64:	4322      	orrs	r2, r4
 8001f66:	691c      	ldr	r4, [r3, #16]
 8001f68:	6808      	ldr	r0, [r1, #0]
 8001f6a:	4322      	orrs	r2, r4
 8001f6c:	695c      	ldr	r4, [r3, #20]
 8001f6e:	4322      	orrs	r2, r4
 8001f70:	699c      	ldr	r4, [r3, #24]
 8001f72:	4322      	orrs	r2, r4
 8001f74:	69dc      	ldr	r4, [r3, #28]
 8001f76:	f36f 100d 	bfc	r0, #4, #10
 8001f7a:	4322      	orrs	r2, r4
 8001f7c:	4302      	orrs	r2, r0
 8001f7e:	600a      	str	r2, [r1, #0]
 8001f80:	4a08      	ldr	r2, [pc, #32]	@ (8001fa4 <HAL_DMA_Init+0x50>)
 8001f82:	440a      	add	r2, r1
 8001f84:	2114      	movs	r1, #20
 8001f86:	fbb2 f2f1 	udiv	r2, r2, r1
 8001f8a:	0092      	lsls	r2, r2, #2
 8001f8c:	641a      	str	r2, [r3, #64]	@ 0x40
 8001f8e:	4a06      	ldr	r2, [pc, #24]	@ (8001fa8 <HAL_DMA_Init+0x54>)
 8001f90:	63da      	str	r2, [r3, #60]	@ 0x3c
 8001f92:	2000      	movs	r0, #0
 8001f94:	f44f 7280 	mov.w	r2, #256	@ 0x100
 8001f98:	6398      	str	r0, [r3, #56]	@ 0x38
 8001f9a:	841a      	strh	r2, [r3, #32]
 8001f9c:	bd10      	pop	{r4, pc}
 8001f9e:	2001      	movs	r0, #1
 8001fa0:	e7fc      	b.n	8001f9c <HAL_DMA_Init+0x48>
 8001fa2:	bf00      	nop
 8001fa4:	bffdfff8 	.word	0xbffdfff8
 8001fa8:	40020000 	.word	0x40020000

08001fac <HAL_DMA_Start_IT>:
 8001fac:	b5f0      	push	{r4, r5, r6, r7, lr}
 8001fae:	f890 4020 	ldrb.w	r4, [r0, #32]
 8001fb2:	2c01      	cmp	r4, #1
 8001fb4:	d033      	beq.n	800201e <HAL_DMA_Start_IT+0x72>
 8001fb6:	f890 5021 	ldrb.w	r5, [r0, #33]	@ 0x21
 8001fba:	2401      	movs	r4, #1
 8001fbc:	42a5      	cmp	r5, r4
 8001fbe:	f880 4020 	strb.w	r4, [r0, #32]
 8001fc2:	f04f 0400 	mov.w	r4, #0
 8001fc6:	d128      	bne.n	800201a <HAL_DMA_Start_IT+0x6e>
 8001fc8:	6384      	str	r4, [r0, #56]	@ 0x38
 8001fca:	2602      	movs	r6, #2
 8001fcc:	6804      	ldr	r4, [r0, #0]
 8001fce:	f880 6021 	strb.w	r6, [r0, #33]	@ 0x21
 8001fd2:	6826      	ldr	r6, [r4, #0]
 8001fd4:	f026 0601 	bic.w	r6, r6, #1
 8001fd8:	6026      	str	r6, [r4, #0]
 8001fda:	e9d0 670f 	ldrd	r6, r7, [r0, #60]	@ 0x3c
 8001fde:	40bd      	lsls	r5, r7
 8001fe0:	6075      	str	r5, [r6, #4]
 8001fe2:	6063      	str	r3, [r4, #4]
 8001fe4:	6843      	ldr	r3, [r0, #4]
 8001fe6:	2b10      	cmp	r3, #16
 8001fe8:	6ac3      	ldr	r3, [r0, #44]	@ 0x2c
 8001fea:	bf0b      	itete	eq
 8001fec:	60a2      	streq	r2, [r4, #8]
 8001fee:	60a1      	strne	r1, [r4, #8]
 8001ff0:	60e1      	streq	r1, [r4, #12]
 8001ff2:	60e2      	strne	r2, [r4, #12]
 8001ff4:	b14b      	cbz	r3, 800200a <HAL_DMA_Start_IT+0x5e>
 8001ff6:	6823      	ldr	r3, [r4, #0]
 8001ff8:	f043 030e 	orr.w	r3, r3, #14
 8001ffc:	6023      	str	r3, [r4, #0]
 8001ffe:	6823      	ldr	r3, [r4, #0]
 8002000:	f043 0301 	orr.w	r3, r3, #1
 8002004:	6023      	str	r3, [r4, #0]
 8002006:	2000      	movs	r0, #0
 8002008:	bdf0      	pop	{r4, r5, r6, r7, pc}
 800200a:	6823      	ldr	r3, [r4, #0]
 800200c:	f043 030a 	orr.w	r3, r3, #10
 8002010:	6023      	str	r3, [r4, #0]
 8002012:	6823      	ldr	r3, [r4, #0]
 8002014:	f023 0304 	bic.w	r3, r3, #4
 8002018:	e7f0      	b.n	8001ffc <HAL_DMA_Start_IT+0x50>
 800201a:	f880 4020 	strb.w	r4, [r0, #32]
 800201e:	2002      	movs	r0, #2
 8002020:	e7f2      	b.n	8002008 <HAL_DMA_Start_IT+0x5c>

08002022 <HAL_DMA_Abort>:
 8002022:	b140      	cbz	r0, 8002036 <HAL_DMA_Abort+0x14>
 8002024:	f890 3021 	ldrb.w	r3, [r0, #33]	@ 0x21
 8002028:	2b02      	cmp	r3, #2
 800202a:	d006      	beq.n	800203a <HAL_DMA_Abort+0x18>
 800202c:	2304      	movs	r3, #4
 800202e:	6383      	str	r3, [r0, #56]	@ 0x38
 8002030:	2300      	movs	r3, #0
 8002032:	f880 3020 	strb.w	r3, [r0, #32]
 8002036:	2001      	movs	r0, #1
 8002038:	4770      	bx	lr
 800203a:	6803      	ldr	r3, [r0, #0]
 800203c:	681a      	ldr	r2, [r3, #0]
 800203e:	f022 020e 	bic.w	r2, r2, #14
 8002042:	601a      	str	r2, [r3, #0]
 8002044:	681a      	ldr	r2, [r3, #0]
 8002046:	f022 0201 	bic.w	r2, r2, #1
 800204a:	601a      	str	r2, [r3, #0]
 800204c:	e9d0 210f 	ldrd	r2, r1, [r0, #60]	@ 0x3c
 8002050:	2301      	movs	r3, #1
 8002052:	408b      	lsls	r3, r1
 8002054:	6053      	str	r3, [r2, #4]
 8002056:	f44f 7380 	mov.w	r3, #256	@ 0x100
 800205a:	8403      	strh	r3, [r0, #32]
 800205c:	2000      	movs	r0, #0
 800205e:	4770      	bx	lr

08002060 <HAL_DMA_Abort_IT>:
 8002060:	b510      	push	{r4, lr}
 8002062:	f890 2021 	ldrb.w	r2, [r0, #33]	@ 0x21
 8002066:	2a02      	cmp	r2, #2
 8002068:	d003      	beq.n	8002072 <HAL_DMA_Abort_IT+0x12>
 800206a:	2204      	movs	r2, #4
 800206c:	6382      	str	r2, [r0, #56]	@ 0x38
 800206e:	2001      	movs	r0, #1
 8002070:	bd10      	pop	{r4, pc}
 8002072:	6802      	ldr	r2, [r0, #0]
 8002074:	6b43      	ldr	r3, [r0, #52]	@ 0x34
 8002076:	6811      	ldr	r1, [r2, #0]
 8002078:	f021 010e 	bic.w	r1, r1, #14
 800207c:	6011      	str	r1, [r2, #0]
 800207e:	6811      	ldr	r1, [r2, #0]
 8002080:	f021 0101 	bic.w	r1, r1, #1
 8002084:	6011      	str	r1, [r2, #0]
 8002086:	e9d0 140f 	ldrd	r1, r4, [r0, #60]	@ 0x3c
 800208a:	2201      	movs	r2, #1
 800208c:	40a2      	lsls	r2, r4
 800208e:	604a      	str	r2, [r1, #4]
 8002090:	f44f 7280 	mov.w	r2, #256	@ 0x100
 8002094:	8402      	strh	r2, [r0, #32]
 8002096:	b103      	cbz	r3, 800209a <HAL_DMA_Abort_IT+0x3a>
 8002098:	4798      	blx	r3
 800209a:	2000      	movs	r0, #0
 800209c:	e7e8      	b.n	8002070 <HAL_DMA_Abort_IT+0x10>

0800209e <HAL_DMA_IRQHandler>:
 800209e:	6bc1      	ldr	r1, [r0, #60]	@ 0x3c
 80020a0:	6c02      	ldr	r2, [r0, #64]	@ 0x40
 80020a2:	6803      	ldr	r3, [r0, #0]
 80020a4:	b470      	push	{r4, r5, r6}
 80020a6:	680e      	ldr	r6, [r1, #0]
 80020a8:	681d      	ldr	r5, [r3, #0]
 80020aa:	2404      	movs	r4, #4
 80020ac:	4094      	lsls	r4, r2
 80020ae:	4234      	tst	r4, r6
 80020b0:	d00e      	beq.n	80020d0 <HAL_DMA_IRQHandler+0x32>
 80020b2:	f015 0f04 	tst.w	r5, #4
 80020b6:	d00b      	beq.n	80020d0 <HAL_DMA_IRQHandler+0x32>
 80020b8:	681a      	ldr	r2, [r3, #0]
 80020ba:	0692      	lsls	r2, r2, #26
 80020bc:	bf5e      	ittt	pl
 80020be:	681a      	ldrpl	r2, [r3, #0]
 80020c0:	f022 0204 	bicpl.w	r2, r2, #4
 80020c4:	601a      	strpl	r2, [r3, #0]
 80020c6:	6ac3      	ldr	r3, [r0, #44]	@ 0x2c
 80020c8:	604c      	str	r4, [r1, #4]
 80020ca:	b363      	cbz	r3, 8002126 <HAL_DMA_IRQHandler+0x88>
 80020cc:	bc70      	pop	{r4, r5, r6}
 80020ce:	4718      	bx	r3
 80020d0:	2402      	movs	r4, #2
 80020d2:	4094      	lsls	r4, r2
 80020d4:	4234      	tst	r4, r6
 80020d6:	d012      	beq.n	80020fe <HAL_DMA_IRQHandler+0x60>
 80020d8:	f015 0f02 	tst.w	r5, #2
 80020dc:	d00f      	beq.n	80020fe <HAL_DMA_IRQHandler+0x60>
 80020de:	681a      	ldr	r2, [r3, #0]
 80020e0:	0695      	lsls	r5, r2, #26
 80020e2:	d406      	bmi.n	80020f2 <HAL_DMA_IRQHandler+0x54>
 80020e4:	681a      	ldr	r2, [r3, #0]
 80020e6:	f022 020a 	bic.w	r2, r2, #10
 80020ea:	601a      	str	r2, [r3, #0]
 80020ec:	2301      	movs	r3, #1
 80020ee:	f880 3021 	strb.w	r3, [r0, #33]	@ 0x21
 80020f2:	2300      	movs	r3, #0
 80020f4:	604c      	str	r4, [r1, #4]
 80020f6:	f880 3020 	strb.w	r3, [r0, #32]
 80020fa:	6a83      	ldr	r3, [r0, #40]	@ 0x28
 80020fc:	e7e5      	b.n	80020ca <HAL_DMA_IRQHandler+0x2c>
 80020fe:	2408      	movs	r4, #8
 8002100:	4094      	lsls	r4, r2
 8002102:	4234      	tst	r4, r6
 8002104:	d00f      	beq.n	8002126 <HAL_DMA_IRQHandler+0x88>
 8002106:	072c      	lsls	r4, r5, #28
 8002108:	d50d      	bpl.n	8002126 <HAL_DMA_IRQHandler+0x88>
 800210a:	681c      	ldr	r4, [r3, #0]
 800210c:	f024 040e 	bic.w	r4, r4, #14
 8002110:	601c      	str	r4, [r3, #0]
 8002112:	2301      	movs	r3, #1
 8002114:	fa03 f202 	lsl.w	r2, r3, r2
 8002118:	604a      	str	r2, [r1, #4]
 800211a:	6383      	str	r3, [r0, #56]	@ 0x38
 800211c:	f44f 7380 	mov.w	r3, #256	@ 0x100
 8002120:	8403      	strh	r3, [r0, #32]
 8002122:	6b03      	ldr	r3, [r0, #48]	@ 0x30
 8002124:	e7d1      	b.n	80020ca <HAL_DMA_IRQHandler+0x2c>
 8002126:	bc70      	pop	{r4, r5, r6}
 8002128:	4770      	bx	lr
	...

0800212c <HAL_GPIO_Init>:
 800212c:	e92d 4ff7 	stmdb	sp!, {r0, r1, r2, r4, r5, r6, r7, r8, r9, sl, fp, lr}
 8002130:	f8df 9170 	ldr.w	r9, [pc, #368]	@ 80022a4 <HAL_GPIO_Init+0x178>
 8002134:	4c59      	ldr	r4, [pc, #356]	@ (800229c <HAL_GPIO_Init+0x170>)
 8002136:	2300      	movs	r3, #0
 8002138:	680a      	ldr	r2, [r1, #0]
 800213a:	fa32 f503 	lsrs.w	r5, r2, r3
 800213e:	d102      	bne.n	8002146 <HAL_GPIO_Init+0x1a>
 8002140:	b003      	add	sp, #12
 8002142:	e8bd 8ff0 	ldmia.w	sp!, {r4, r5, r6, r7, r8, r9, sl, fp, pc}
 8002146:	2501      	movs	r5, #1
 8002148:	fa05 f803 	lsl.w	r8, r5, r3
 800214c:	ea18 0202 	ands.w	r2, r8, r2
 8002150:	f000 809c 	beq.w	800228c <HAL_GPIO_Init+0x160>
 8002154:	684e      	ldr	r6, [r1, #4]
 8002156:	2703      	movs	r7, #3
 8002158:	f006 0503 	and.w	r5, r6, #3
 800215c:	ea4f 0e43 	mov.w	lr, r3, lsl #1
 8002160:	fa07 fc0e 	lsl.w	ip, r7, lr
 8002164:	1e6f      	subs	r7, r5, #1
 8002166:	2f01      	cmp	r7, #1
 8002168:	ea6f 0c0c 	mvn.w	ip, ip
 800216c:	d834      	bhi.n	80021d8 <HAL_GPIO_Init+0xac>
 800216e:	6887      	ldr	r7, [r0, #8]
 8002170:	ea07 0a0c 	and.w	sl, r7, ip
 8002174:	68cf      	ldr	r7, [r1, #12]
 8002176:	fa07 f70e 	lsl.w	r7, r7, lr
 800217a:	ea47 070a 	orr.w	r7, r7, sl
 800217e:	6087      	str	r7, [r0, #8]
 8002180:	6847      	ldr	r7, [r0, #4]
 8002182:	ea27 0808 	bic.w	r8, r7, r8
 8002186:	f3c6 1700 	ubfx	r7, r6, #4, #1
 800218a:	409f      	lsls	r7, r3
 800218c:	ea47 0708 	orr.w	r7, r7, r8
 8002190:	6047      	str	r7, [r0, #4]
 8002192:	68c7      	ldr	r7, [r0, #12]
 8002194:	ea07 080c 	and.w	r8, r7, ip
 8002198:	688f      	ldr	r7, [r1, #8]
 800219a:	fa07 f70e 	lsl.w	r7, r7, lr
 800219e:	ea47 0708 	orr.w	r7, r7, r8
 80021a2:	2d02      	cmp	r5, #2
 80021a4:	60c7      	str	r7, [r0, #12]
 80021a6:	d119      	bne.n	80021dc <HAL_GPIO_Init+0xb0>
 80021a8:	ea4f 08d3 	mov.w	r8, r3, lsr #3
 80021ac:	eb00 0888 	add.w	r8, r0, r8, lsl #2
 80021b0:	f003 0a07 	and.w	sl, r3, #7
 80021b4:	f8d8 7020 	ldr.w	r7, [r8, #32]
 80021b8:	ea4f 0a8a 	mov.w	sl, sl, lsl #2
 80021bc:	f04f 0b0f 	mov.w	fp, #15
 80021c0:	fa0b fb0a 	lsl.w	fp, fp, sl
 80021c4:	ea27 0b0b 	bic.w	fp, r7, fp
 80021c8:	690f      	ldr	r7, [r1, #16]
 80021ca:	fa07 f70a 	lsl.w	r7, r7, sl
 80021ce:	ea47 070b 	orr.w	r7, r7, fp
 80021d2:	f8c8 7020 	str.w	r7, [r8, #32]
 80021d6:	e001      	b.n	80021dc <HAL_GPIO_Init+0xb0>
 80021d8:	2d03      	cmp	r5, #3
 80021da:	d1da      	bne.n	8002192 <HAL_GPIO_Init+0x66>
 80021dc:	6807      	ldr	r7, [r0, #0]
 80021de:	fa05 f50e 	lsl.w	r5, r5, lr
 80021e2:	ea07 070c 	and.w	r7, r7, ip
 80021e6:	433d      	orrs	r5, r7
 80021e8:	f416 3f40 	tst.w	r6, #196608	@ 0x30000
 80021ec:	6005      	str	r5, [r0, #0]
 80021ee:	d04d      	beq.n	800228c <HAL_GPIO_Init+0x160>
 80021f0:	f8d9 5018 	ldr.w	r5, [r9, #24]
 80021f4:	f045 0501 	orr.w	r5, r5, #1
 80021f8:	f8c9 5018 	str.w	r5, [r9, #24]
 80021fc:	f8d9 5018 	ldr.w	r5, [r9, #24]
 8002200:	f023 0703 	bic.w	r7, r3, #3
 8002204:	f107 4780 	add.w	r7, r7, #1073741824	@ 0x40000000
 8002208:	f005 0501 	and.w	r5, r5, #1
 800220c:	f507 3780 	add.w	r7, r7, #65536	@ 0x10000
 8002210:	9501      	str	r5, [sp, #4]
 8002212:	f003 0c03 	and.w	ip, r3, #3
 8002216:	9d01      	ldr	r5, [sp, #4]
 8002218:	68bd      	ldr	r5, [r7, #8]
 800221a:	ea4f 0c8c 	mov.w	ip, ip, lsl #2
 800221e:	f04f 0e0f 	mov.w	lr, #15
 8002222:	fa0e fe0c 	lsl.w	lr, lr, ip
 8002226:	f1b0 4f90 	cmp.w	r0, #1207959552	@ 0x48000000
 800222a:	ea25 0e0e 	bic.w	lr, r5, lr
 800222e:	d02f      	beq.n	8002290 <HAL_GPIO_Init+0x164>
 8002230:	4d1b      	ldr	r5, [pc, #108]	@ (80022a0 <HAL_GPIO_Init+0x174>)
 8002232:	42a8      	cmp	r0, r5
 8002234:	d02e      	beq.n	8002294 <HAL_GPIO_Init+0x168>
 8002236:	f505 6580 	add.w	r5, r5, #1024	@ 0x400
 800223a:	42a8      	cmp	r0, r5
 800223c:	d02c      	beq.n	8002298 <HAL_GPIO_Init+0x16c>
 800223e:	f505 6580 	add.w	r5, r5, #1024	@ 0x400
 8002242:	42a8      	cmp	r0, r5
 8002244:	bf14      	ite	ne
 8002246:	2505      	movne	r5, #5
 8002248:	2503      	moveq	r5, #3
 800224a:	fa05 f50c 	lsl.w	r5, r5, ip
 800224e:	ea45 050e 	orr.w	r5, r5, lr
 8002252:	60bd      	str	r5, [r7, #8]
 8002254:	68a5      	ldr	r5, [r4, #8]
 8002256:	43d7      	mvns	r7, r2
 8002258:	f416 1f80 	tst.w	r6, #1048576	@ 0x100000
 800225c:	bf0c      	ite	eq
 800225e:	403d      	andeq	r5, r7
 8002260:	4315      	orrne	r5, r2
 8002262:	60a5      	str	r5, [r4, #8]
 8002264:	68e5      	ldr	r5, [r4, #12]
 8002266:	f416 1f00 	tst.w	r6, #2097152	@ 0x200000
 800226a:	bf0c      	ite	eq
 800226c:	403d      	andeq	r5, r7
 800226e:	4315      	orrne	r5, r2
 8002270:	60e5      	str	r5, [r4, #12]
 8002272:	6865      	ldr	r5, [r4, #4]
 8002274:	f416 3f00 	tst.w	r6, #131072	@ 0x20000
 8002278:	bf0c      	ite	eq
 800227a:	403d      	andeq	r5, r7
 800227c:	4315      	orrne	r5, r2
 800227e:	6065      	str	r5, [r4, #4]
 8002280:	6825      	ldr	r5, [r4, #0]
 8002282:	03f6      	lsls	r6, r6, #15
 8002284:	bf54      	ite	pl
 8002286:	403d      	andpl	r5, r7
 8002288:	4315      	orrmi	r5, r2
 800228a:	6025      	str	r5, [r4, #0]
 800228c:	3301      	adds	r3, #1
 800228e:	e753      	b.n	8002138 <HAL_GPIO_Init+0xc>
 8002290:	2500      	movs	r5, #0
 8002292:	e7da      	b.n	800224a <HAL_GPIO_Init+0x11e>
 8002294:	2501      	movs	r5, #1
 8002296:	e7d8      	b.n	800224a <HAL_GPIO_Init+0x11e>
 8002298:	2502      	movs	r5, #2
 800229a:	e7d6      	b.n	800224a <HAL_GPIO_Init+0x11e>
 800229c:	40010400 	.word	0x40010400
 80022a0:	48000400 	.word	0x48000400
 80022a4:	40021000 	.word	0x40021000

080022a8 <HAL_GPIO_WritePin>:
 80022a8:	b10a      	cbz	r2, 80022ae <HAL_GPIO_WritePin+0x6>
 80022aa:	6181      	str	r1, [r0, #24]
 80022ac:	4770      	bx	lr
 80022ae:	6281      	str	r1, [r0, #40]	@ 0x28
 80022b0:	4770      	bx	lr

080022b2 <HAL_GPIO_TogglePin>:
 80022b2:	6943      	ldr	r3, [r0, #20]
 80022b4:	ea01 0203 	and.w	r2, r1, r3
 80022b8:	ea21 0103 	bic.w	r1, r1, r3
 80022bc:	ea41 4102 	orr.w	r1, r1, r2, lsl #16
 80022c0:	6181      	str	r1, [r0, #24]
 80022c2:	4770      	bx	lr

080022c4 <HAL_RCC_OscConfig>:
 80022c4:	e92d 47f3 	stmdb	sp!, {r0, r1, r4, r5, r6, r7, r8, r9, sl, lr}
 80022c8:	4605      	mov	r5, r0
 80022ca:	2800      	cmp	r0, #0
 80022cc:	d033      	beq.n	8002336 <HAL_RCC_OscConfig+0x72>
 80022ce:	6803      	ldr	r3, [r0, #0]
 80022d0:	07da      	lsls	r2, r3, #31
 80022d2:	d411      	bmi.n	80022f8 <HAL_RCC_OscConfig+0x34>
 80022d4:	682b      	ldr	r3, [r5, #0]
 80022d6:	079b      	lsls	r3, r3, #30
 80022d8:	f100 8081 	bmi.w	80023de <HAL_RCC_OscConfig+0x11a>
 80022dc:	682b      	ldr	r3, [r5, #0]
 80022de:	071c      	lsls	r4, r3, #28
 80022e0:	f100 80eb 	bmi.w	80024ba <HAL_RCC_OscConfig+0x1f6>
 80022e4:	682b      	ldr	r3, [r5, #0]
 80022e6:	0758      	lsls	r0, r3, #29
 80022e8:	f100 8130 	bmi.w	800254c <HAL_RCC_OscConfig+0x288>
 80022ec:	69eb      	ldr	r3, [r5, #28]
 80022ee:	2b00      	cmp	r3, #0
 80022f0:	f040 81b5 	bne.w	800265e <HAL_RCC_OscConfig+0x39a>
 80022f4:	2000      	movs	r0, #0
 80022f6:	e047      	b.n	8002388 <HAL_RCC_OscConfig+0xc4>
 80022f8:	4cb0      	ldr	r4, [pc, #704]	@ (80025bc <HAL_RCC_OscConfig+0x2f8>)
 80022fa:	6863      	ldr	r3, [r4, #4]
 80022fc:	f003 030c 	and.w	r3, r3, #12
 8002300:	2b04      	cmp	r3, #4
 8002302:	d007      	beq.n	8002314 <HAL_RCC_OscConfig+0x50>
 8002304:	6863      	ldr	r3, [r4, #4]
 8002306:	f003 030c 	and.w	r3, r3, #12
 800230a:	2b08      	cmp	r3, #8
 800230c:	d115      	bne.n	800233a <HAL_RCC_OscConfig+0x76>
 800230e:	6863      	ldr	r3, [r4, #4]
 8002310:	03df      	lsls	r7, r3, #15
 8002312:	d512      	bpl.n	800233a <HAL_RCC_OscConfig+0x76>
 8002314:	f44f 3300 	mov.w	r3, #131072	@ 0x20000
 8002318:	fa93 f2a3 	rbit	r2, r3
 800231c:	6821      	ldr	r1, [r4, #0]
 800231e:	fa93 f3a3 	rbit	r3, r3
 8002322:	2201      	movs	r2, #1
 8002324:	fab3 f383 	clz	r3, r3
 8002328:	fa02 f303 	lsl.w	r3, r2, r3
 800232c:	420b      	tst	r3, r1
 800232e:	d0d1      	beq.n	80022d4 <HAL_RCC_OscConfig+0x10>
 8002330:	686b      	ldr	r3, [r5, #4]
 8002332:	2b00      	cmp	r3, #0
 8002334:	d1ce      	bne.n	80022d4 <HAL_RCC_OscConfig+0x10>
 8002336:	2001      	movs	r0, #1
 8002338:	e026      	b.n	8002388 <HAL_RCC_OscConfig+0xc4>
 800233a:	686a      	ldr	r2, [r5, #4]
 800233c:	f5b2 3f80 	cmp.w	r2, #65536	@ 0x10000
 8002340:	d125      	bne.n	800238e <HAL_RCC_OscConfig+0xca>
 8002342:	6823      	ldr	r3, [r4, #0]
 8002344:	f443 3380 	orr.w	r3, r3, #65536	@ 0x10000
 8002348:	6023      	str	r3, [r4, #0]
 800234a:	6ae3      	ldr	r3, [r4, #44]	@ 0x2c
 800234c:	68a9      	ldr	r1, [r5, #8]
 800234e:	f023 030f 	bic.w	r3, r3, #15
 8002352:	430b      	orrs	r3, r1
 8002354:	62e3      	str	r3, [r4, #44]	@ 0x2c
 8002356:	b352      	cbz	r2, 80023ae <HAL_RCC_OscConfig+0xea>
 8002358:	f7ff f926 	bl	80015a8 <HAL_GetTick>
 800235c:	f44f 3700 	mov.w	r7, #131072	@ 0x20000
 8002360:	4606      	mov	r6, r0
 8002362:	f04f 0801 	mov.w	r8, #1
 8002366:	fa97 f3a7 	rbit	r3, r7
 800236a:	6822      	ldr	r2, [r4, #0]
 800236c:	fa97 f3a7 	rbit	r3, r7
 8002370:	fab3 f383 	clz	r3, r3
 8002374:	fa08 f303 	lsl.w	r3, r8, r3
 8002378:	4213      	tst	r3, r2
 800237a:	d1ab      	bne.n	80022d4 <HAL_RCC_OscConfig+0x10>
 800237c:	f7ff f914 	bl	80015a8 <HAL_GetTick>
 8002380:	1b80      	subs	r0, r0, r6
 8002382:	2864      	cmp	r0, #100	@ 0x64
 8002384:	d9ef      	bls.n	8002366 <HAL_RCC_OscConfig+0xa2>
 8002386:	2003      	movs	r0, #3
 8002388:	b002      	add	sp, #8
 800238a:	e8bd 87f0 	ldmia.w	sp!, {r4, r5, r6, r7, r8, r9, sl, pc}
 800238e:	6823      	ldr	r3, [r4, #0]
 8002390:	b932      	cbnz	r2, 80023a0 <HAL_RCC_OscConfig+0xdc>
 8002392:	f423 3380 	bic.w	r3, r3, #65536	@ 0x10000
 8002396:	6023      	str	r3, [r4, #0]
 8002398:	6823      	ldr	r3, [r4, #0]
 800239a:	f423 2380 	bic.w	r3, r3, #262144	@ 0x40000
 800239e:	e7d3      	b.n	8002348 <HAL_RCC_OscConfig+0x84>
 80023a0:	f5b2 2fa0 	cmp.w	r2, #327680	@ 0x50000
 80023a4:	d1f5      	bne.n	8002392 <HAL_RCC_OscConfig+0xce>
 80023a6:	f443 2380 	orr.w	r3, r3, #262144	@ 0x40000
 80023aa:	6023      	str	r3, [r4, #0]
 80023ac:	e7c9      	b.n	8002342 <HAL_RCC_OscConfig+0x7e>
 80023ae:	f7ff f8fb 	bl	80015a8 <HAL_GetTick>
 80023b2:	f44f 3700 	mov.w	r7, #131072	@ 0x20000
 80023b6:	4606      	mov	r6, r0
 80023b8:	f04f 0801 	mov.w	r8, #1
 80023bc:	fa97 f3a7 	rbit	r3, r7
 80023c0:	6822      	ldr	r2, [r4, #0]
 80023c2:	fa97 f3a7 	rbit	r3, r7
 80023c6:	fab3 f383 	clz	r3, r3
 80023ca:	fa08 f303 	lsl.w	r3, r8, r3
 80023ce:	4213      	tst	r3, r2
 80023d0:	d080      	beq.n	80022d4 <HAL_RCC_OscConfig+0x10>
 80023d2:	f7ff f8e9 	bl	80015a8 <HAL_GetTick>
 80023d6:	1b80      	subs	r0, r0, r6
 80023d8:	2864      	cmp	r0, #100	@ 0x64
 80023da:	d9ef      	bls.n	80023bc <HAL_RCC_OscConfig+0xf8>
 80023dc:	e7d3      	b.n	8002386 <HAL_RCC_OscConfig+0xc2>
 80023de:	4c77      	ldr	r4, [pc, #476]	@ (80025bc <HAL_RCC_OscConfig+0x2f8>)
 80023e0:	6863      	ldr	r3, [r4, #4]
 80023e2:	f013 0f0c 	tst.w	r3, #12
 80023e6:	d007      	beq.n	80023f8 <HAL_RCC_OscConfig+0x134>
 80023e8:	6863      	ldr	r3, [r4, #4]
 80023ea:	f003 030c 	and.w	r3, r3, #12
 80023ee:	2b08      	cmp	r3, #8
 80023f0:	d11f      	bne.n	8002432 <HAL_RCC_OscConfig+0x16e>
 80023f2:	6863      	ldr	r3, [r4, #4]
 80023f4:	03de      	lsls	r6, r3, #15
 80023f6:	d41c      	bmi.n	8002432 <HAL_RCC_OscConfig+0x16e>
 80023f8:	2302      	movs	r3, #2
 80023fa:	fa93 f2a3 	rbit	r2, r3
 80023fe:	6821      	ldr	r1, [r4, #0]
 8002400:	fa93 f3a3 	rbit	r3, r3
 8002404:	2201      	movs	r2, #1
 8002406:	fab3 f383 	clz	r3, r3
 800240a:	fa02 f303 	lsl.w	r3, r2, r3
 800240e:	420b      	tst	r3, r1
 8002410:	d002      	beq.n	8002418 <HAL_RCC_OscConfig+0x154>
 8002412:	692b      	ldr	r3, [r5, #16]
 8002414:	4293      	cmp	r3, r2
 8002416:	d18e      	bne.n	8002336 <HAL_RCC_OscConfig+0x72>
 8002418:	6821      	ldr	r1, [r4, #0]
 800241a:	22f8      	movs	r2, #248	@ 0xf8
 800241c:	fa92 f2a2 	rbit	r2, r2
 8002420:	696b      	ldr	r3, [r5, #20]
 8002422:	fab2 f282 	clz	r2, r2
 8002426:	4093      	lsls	r3, r2
 8002428:	f021 02f8 	bic.w	r2, r1, #248	@ 0xf8
 800242c:	4313      	orrs	r3, r2
 800242e:	6023      	str	r3, [r4, #0]
 8002430:	e754      	b.n	80022dc <HAL_RCC_OscConfig+0x18>
 8002432:	692a      	ldr	r2, [r5, #16]
 8002434:	2601      	movs	r6, #1
 8002436:	b1fa      	cbz	r2, 8002478 <HAL_RCC_OscConfig+0x1b4>
 8002438:	fa96 f3a6 	rbit	r3, r6
 800243c:	fab3 f383 	clz	r3, r3
 8002440:	f103 5384 	add.w	r3, r3, #276824064	@ 0x10800000
 8002444:	f503 1384 	add.w	r3, r3, #1081344	@ 0x108000
 8002448:	009b      	lsls	r3, r3, #2
 800244a:	f04f 0802 	mov.w	r8, #2
 800244e:	601e      	str	r6, [r3, #0]
 8002450:	f7ff f8aa 	bl	80015a8 <HAL_GetTick>
 8002454:	4607      	mov	r7, r0
 8002456:	fa98 f3a8 	rbit	r3, r8
 800245a:	6822      	ldr	r2, [r4, #0]
 800245c:	fa98 f3a8 	rbit	r3, r8
 8002460:	fab3 f383 	clz	r3, r3
 8002464:	fa06 f303 	lsl.w	r3, r6, r3
 8002468:	4213      	tst	r3, r2
 800246a:	d1d5      	bne.n	8002418 <HAL_RCC_OscConfig+0x154>
 800246c:	f7ff f89c 	bl	80015a8 <HAL_GetTick>
 8002470:	1bc0      	subs	r0, r0, r7
 8002472:	2802      	cmp	r0, #2
 8002474:	d9ef      	bls.n	8002456 <HAL_RCC_OscConfig+0x192>
 8002476:	e786      	b.n	8002386 <HAL_RCC_OscConfig+0xc2>
 8002478:	fa96 f3a6 	rbit	r3, r6
 800247c:	fab3 f383 	clz	r3, r3
 8002480:	f103 5384 	add.w	r3, r3, #276824064	@ 0x10800000
 8002484:	f503 1384 	add.w	r3, r3, #1081344	@ 0x108000
 8002488:	009b      	lsls	r3, r3, #2
 800248a:	f04f 0802 	mov.w	r8, #2
 800248e:	601a      	str	r2, [r3, #0]
 8002490:	f7ff f88a 	bl	80015a8 <HAL_GetTick>
 8002494:	4607      	mov	r7, r0
 8002496:	fa98 f3a8 	rbit	r3, r8
 800249a:	6822      	ldr	r2, [r4, #0]
 800249c:	fa98 f3a8 	rbit	r3, r8
 80024a0:	fab3 f383 	clz	r3, r3
 80024a4:	fa06 f303 	lsl.w	r3, r6, r3
 80024a8:	4213      	tst	r3, r2
 80024aa:	f43f af17 	beq.w	80022dc <HAL_RCC_OscConfig+0x18>
 80024ae:	f7ff f87b 	bl	80015a8 <HAL_GetTick>
 80024b2:	1bc0      	subs	r0, r0, r7
 80024b4:	2802      	cmp	r0, #2
 80024b6:	d9ee      	bls.n	8002496 <HAL_RCC_OscConfig+0x1d2>
 80024b8:	e765      	b.n	8002386 <HAL_RCC_OscConfig+0xc2>
 80024ba:	69aa      	ldr	r2, [r5, #24]
 80024bc:	4e3f      	ldr	r6, [pc, #252]	@ (80025bc <HAL_RCC_OscConfig+0x2f8>)
 80024be:	4940      	ldr	r1, [pc, #256]	@ (80025c0 <HAL_RCC_OscConfig+0x2fc>)
 80024c0:	2401      	movs	r4, #1
 80024c2:	b30a      	cbz	r2, 8002508 <HAL_RCC_OscConfig+0x244>
 80024c4:	fa94 f3a4 	rbit	r3, r4
 80024c8:	fab3 f383 	clz	r3, r3
 80024cc:	440b      	add	r3, r1
 80024ce:	009b      	lsls	r3, r3, #2
 80024d0:	2702      	movs	r7, #2
 80024d2:	601c      	str	r4, [r3, #0]
 80024d4:	f7ff f868 	bl	80015a8 <HAL_GetTick>
 80024d8:	4680      	mov	r8, r0
 80024da:	fa97 f3a7 	rbit	r3, r7
 80024de:	fa97 f3a7 	rbit	r3, r7
 80024e2:	fa97 f3a7 	rbit	r3, r7
 80024e6:	6a72      	ldr	r2, [r6, #36]	@ 0x24
 80024e8:	fa97 f3a7 	rbit	r3, r7
 80024ec:	fab3 f383 	clz	r3, r3
 80024f0:	fa04 f303 	lsl.w	r3, r4, r3
 80024f4:	4213      	tst	r3, r2
 80024f6:	f47f aef5 	bne.w	80022e4 <HAL_RCC_OscConfig+0x20>
 80024fa:	f7ff f855 	bl	80015a8 <HAL_GetTick>
 80024fe:	eba0 0008 	sub.w	r0, r0, r8
 8002502:	2802      	cmp	r0, #2
 8002504:	d9e9      	bls.n	80024da <HAL_RCC_OscConfig+0x216>
 8002506:	e73e      	b.n	8002386 <HAL_RCC_OscConfig+0xc2>
 8002508:	fa94 f3a4 	rbit	r3, r4
 800250c:	fab3 f383 	clz	r3, r3
 8002510:	440b      	add	r3, r1
 8002512:	009b      	lsls	r3, r3, #2
 8002514:	2702      	movs	r7, #2
 8002516:	601a      	str	r2, [r3, #0]
 8002518:	f7ff f846 	bl	80015a8 <HAL_GetTick>
 800251c:	4680      	mov	r8, r0
 800251e:	fa97 f3a7 	rbit	r3, r7
 8002522:	fa97 f3a7 	rbit	r3, r7
 8002526:	fa97 f3a7 	rbit	r3, r7
 800252a:	6a72      	ldr	r2, [r6, #36]	@ 0x24
 800252c:	fa97 f3a7 	rbit	r3, r7
 8002530:	fab3 f383 	clz	r3, r3
 8002534:	fa04 f303 	lsl.w	r3, r4, r3
 8002538:	4213      	tst	r3, r2
 800253a:	f43f aed3 	beq.w	80022e4 <HAL_RCC_OscConfig+0x20>
 800253e:	f7ff f833 	bl	80015a8 <HAL_GetTick>
 8002542:	eba0 0008 	sub.w	r0, r0, r8
 8002546:	2802      	cmp	r0, #2
 8002548:	d9e9      	bls.n	800251e <HAL_RCC_OscConfig+0x25a>
 800254a:	e71c      	b.n	8002386 <HAL_RCC_OscConfig+0xc2>
 800254c:	4c1b      	ldr	r4, [pc, #108]	@ (80025bc <HAL_RCC_OscConfig+0x2f8>)
 800254e:	69e3      	ldr	r3, [r4, #28]
 8002550:	00d9      	lsls	r1, r3, #3
 8002552:	d431      	bmi.n	80025b8 <HAL_RCC_OscConfig+0x2f4>
 8002554:	69e3      	ldr	r3, [r4, #28]
 8002556:	f043 5380 	orr.w	r3, r3, #268435456	@ 0x10000000
 800255a:	61e3      	str	r3, [r4, #28]
 800255c:	69e3      	ldr	r3, [r4, #28]
 800255e:	f003 5380 	and.w	r3, r3, #268435456	@ 0x10000000
 8002562:	9301      	str	r3, [sp, #4]
 8002564:	9b01      	ldr	r3, [sp, #4]
 8002566:	2601      	movs	r6, #1
 8002568:	4f16      	ldr	r7, [pc, #88]	@ (80025c4 <HAL_RCC_OscConfig+0x300>)
 800256a:	683b      	ldr	r3, [r7, #0]
 800256c:	05da      	lsls	r2, r3, #23
 800256e:	d52b      	bpl.n	80025c8 <HAL_RCC_OscConfig+0x304>
 8002570:	68eb      	ldr	r3, [r5, #12]
 8002572:	2b01      	cmp	r3, #1
 8002574:	d139      	bne.n	80025ea <HAL_RCC_OscConfig+0x326>
 8002576:	6a23      	ldr	r3, [r4, #32]
 8002578:	f043 0301 	orr.w	r3, r3, #1
 800257c:	6223      	str	r3, [r4, #32]
 800257e:	f7ff f813 	bl	80015a8 <HAL_GetTick>
 8002582:	2702      	movs	r7, #2
 8002584:	4680      	mov	r8, r0
 8002586:	f04f 0901 	mov.w	r9, #1
 800258a:	f241 3a88 	movw	sl, #5000	@ 0x1388
 800258e:	fa97 f3a7 	rbit	r3, r7
 8002592:	fa97 f3a7 	rbit	r3, r7
 8002596:	6a22      	ldr	r2, [r4, #32]
 8002598:	fa97 f3a7 	rbit	r3, r7
 800259c:	fab3 f383 	clz	r3, r3
 80025a0:	fa09 f303 	lsl.w	r3, r9, r3
 80025a4:	4213      	tst	r3, r2
 80025a6:	d053      	beq.n	8002650 <HAL_RCC_OscConfig+0x38c>
 80025a8:	2e00      	cmp	r6, #0
 80025aa:	f43f ae9f 	beq.w	80022ec <HAL_RCC_OscConfig+0x28>
 80025ae:	69e3      	ldr	r3, [r4, #28]
 80025b0:	f023 5380 	bic.w	r3, r3, #268435456	@ 0x10000000
 80025b4:	61e3      	str	r3, [r4, #28]
 80025b6:	e699      	b.n	80022ec <HAL_RCC_OscConfig+0x28>
 80025b8:	2600      	movs	r6, #0
 80025ba:	e7d5      	b.n	8002568 <HAL_RCC_OscConfig+0x2a4>
 80025bc:	40021000 	.word	0x40021000
 80025c0:	10908120 	.word	0x10908120
 80025c4:	40007000 	.word	0x40007000
 80025c8:	683b      	ldr	r3, [r7, #0]
 80025ca:	f443 7380 	orr.w	r3, r3, #256	@ 0x100
 80025ce:	603b      	str	r3, [r7, #0]
 80025d0:	f7fe ffea 	bl	80015a8 <HAL_GetTick>
 80025d4:	4680      	mov	r8, r0
 80025d6:	683b      	ldr	r3, [r7, #0]
 80025d8:	05db      	lsls	r3, r3, #23
 80025da:	d4c9      	bmi.n	8002570 <HAL_RCC_OscConfig+0x2ac>
 80025dc:	f7fe ffe4 	bl	80015a8 <HAL_GetTick>
 80025e0:	eba0 0008 	sub.w	r0, r0, r8
 80025e4:	2864      	cmp	r0, #100	@ 0x64
 80025e6:	d9f6      	bls.n	80025d6 <HAL_RCC_OscConfig+0x312>
 80025e8:	e6cd      	b.n	8002386 <HAL_RCC_OscConfig+0xc2>
 80025ea:	bb1b      	cbnz	r3, 8002634 <HAL_RCC_OscConfig+0x370>
 80025ec:	6a23      	ldr	r3, [r4, #32]
 80025ee:	f023 0301 	bic.w	r3, r3, #1
 80025f2:	6223      	str	r3, [r4, #32]
 80025f4:	6a23      	ldr	r3, [r4, #32]
 80025f6:	f023 0304 	bic.w	r3, r3, #4
 80025fa:	6223      	str	r3, [r4, #32]
 80025fc:	f7fe ffd4 	bl	80015a8 <HAL_GetTick>
 8002600:	2702      	movs	r7, #2
 8002602:	4680      	mov	r8, r0
 8002604:	f04f 0901 	mov.w	r9, #1
 8002608:	f241 3a88 	movw	sl, #5000	@ 0x1388
 800260c:	fa97 f3a7 	rbit	r3, r7
 8002610:	fa97 f3a7 	rbit	r3, r7
 8002614:	6a22      	ldr	r2, [r4, #32]
 8002616:	fa97 f3a7 	rbit	r3, r7
 800261a:	fab3 f383 	clz	r3, r3
 800261e:	fa09 f303 	lsl.w	r3, r9, r3
 8002622:	4213      	tst	r3, r2
 8002624:	d0c0      	beq.n	80025a8 <HAL_RCC_OscConfig+0x2e4>
 8002626:	f7fe ffbf 	bl	80015a8 <HAL_GetTick>
 800262a:	eba0 0008 	sub.w	r0, r0, r8
 800262e:	4550      	cmp	r0, sl
 8002630:	d9ec      	bls.n	800260c <HAL_RCC_OscConfig+0x348>
 8002632:	e6a8      	b.n	8002386 <HAL_RCC_OscConfig+0xc2>
 8002634:	2b05      	cmp	r3, #5
 8002636:	6a23      	ldr	r3, [r4, #32]
 8002638:	d103      	bne.n	8002642 <HAL_RCC_OscConfig+0x37e>
 800263a:	f043 0304 	orr.w	r3, r3, #4
 800263e:	6223      	str	r3, [r4, #32]
 8002640:	e799      	b.n	8002576 <HAL_RCC_OscConfig+0x2b2>
 8002642:	f023 0301 	bic.w	r3, r3, #1
 8002646:	6223      	str	r3, [r4, #32]
 8002648:	6a23      	ldr	r3, [r4, #32]
 800264a:	f023 0304 	bic.w	r3, r3, #4
 800264e:	e795      	b.n	800257c <HAL_RCC_OscConfig+0x2b8>
 8002650:	f7fe ffaa 	bl	80015a8 <HAL_GetTick>
 8002654:	eba0 0008 	sub.w	r0, r0, r8
 8002658:	4550      	cmp	r0, sl
 800265a:	d998      	bls.n	800258e <HAL_RCC_OscConfig+0x2ca>
 800265c:	e693      	b.n	8002386 <HAL_RCC_OscConfig+0xc2>
 800265e:	4c46      	ldr	r4, [pc, #280]	@ (8002778 <HAL_RCC_OscConfig+0x4b4>)
 8002660:	6862      	ldr	r2, [r4, #4]
 8002662:	f002 020c 	and.w	r2, r2, #12
 8002666:	2a08      	cmp	r2, #8
 8002668:	d074      	beq.n	8002754 <HAL_RCC_OscConfig+0x490>
 800266a:	2b02      	cmp	r3, #2
 800266c:	f04f 7380 	mov.w	r3, #16777216	@ 0x1000000
 8002670:	d14d      	bne.n	800270e <HAL_RCC_OscConfig+0x44a>
 8002672:	fa93 f3a3 	rbit	r3, r3
 8002676:	fab3 f383 	clz	r3, r3
 800267a:	f103 5384 	add.w	r3, r3, #276824064	@ 0x10800000
 800267e:	f503 1384 	add.w	r3, r3, #1081344	@ 0x108000
 8002682:	009b      	lsls	r3, r3, #2
 8002684:	2200      	movs	r2, #0
 8002686:	601a      	str	r2, [r3, #0]
 8002688:	f7fe ff8e 	bl	80015a8 <HAL_GetTick>
 800268c:	f04f 7800 	mov.w	r8, #33554432	@ 0x2000000
 8002690:	4607      	mov	r7, r0
 8002692:	2601      	movs	r6, #1
 8002694:	fa98 f3a8 	rbit	r3, r8
 8002698:	6822      	ldr	r2, [r4, #0]
 800269a:	fa98 f3a8 	rbit	r3, r8
 800269e:	fab3 f383 	clz	r3, r3
 80026a2:	fa06 f303 	lsl.w	r3, r6, r3
 80026a6:	4213      	tst	r3, r2
 80026a8:	d12b      	bne.n	8002702 <HAL_RCC_OscConfig+0x43e>
 80026aa:	e9d5 1308 	ldrd	r1, r3, [r5, #32]
 80026ae:	6862      	ldr	r2, [r4, #4]
 80026b0:	430b      	orrs	r3, r1
 80026b2:	f422 1274 	bic.w	r2, r2, #3997696	@ 0x3d0000
 80026b6:	4313      	orrs	r3, r2
 80026b8:	6063      	str	r3, [r4, #4]
 80026ba:	f04f 7380 	mov.w	r3, #16777216	@ 0x1000000
 80026be:	fa93 f3a3 	rbit	r3, r3
 80026c2:	fab3 f383 	clz	r3, r3
 80026c6:	f103 5384 	add.w	r3, r3, #276824064	@ 0x10800000
 80026ca:	f503 1384 	add.w	r3, r3, #1081344	@ 0x108000
 80026ce:	009b      	lsls	r3, r3, #2
 80026d0:	2701      	movs	r7, #1
 80026d2:	601e      	str	r6, [r3, #0]
 80026d4:	f7fe ff68 	bl	80015a8 <HAL_GetTick>
 80026d8:	f04f 7600 	mov.w	r6, #33554432	@ 0x2000000
 80026dc:	4605      	mov	r5, r0
 80026de:	fa96 f3a6 	rbit	r3, r6
 80026e2:	6822      	ldr	r2, [r4, #0]
 80026e4:	fa96 f3a6 	rbit	r3, r6
 80026e8:	fab3 f383 	clz	r3, r3
 80026ec:	fa07 f303 	lsl.w	r3, r7, r3
 80026f0:	4213      	tst	r3, r2
 80026f2:	f47f adff 	bne.w	80022f4 <HAL_RCC_OscConfig+0x30>
 80026f6:	f7fe ff57 	bl	80015a8 <HAL_GetTick>
 80026fa:	1b40      	subs	r0, r0, r5
 80026fc:	2802      	cmp	r0, #2
 80026fe:	d9ee      	bls.n	80026de <HAL_RCC_OscConfig+0x41a>
 8002700:	e641      	b.n	8002386 <HAL_RCC_OscConfig+0xc2>
 8002702:	f7fe ff51 	bl	80015a8 <HAL_GetTick>
 8002706:	1bc0      	subs	r0, r0, r7
 8002708:	2802      	cmp	r0, #2
 800270a:	d9c3      	bls.n	8002694 <HAL_RCC_OscConfig+0x3d0>
 800270c:	e63b      	b.n	8002386 <HAL_RCC_OscConfig+0xc2>
 800270e:	fa93 f3a3 	rbit	r3, r3
 8002712:	fab3 f383 	clz	r3, r3
 8002716:	f103 5384 	add.w	r3, r3, #276824064	@ 0x10800000
 800271a:	f503 1384 	add.w	r3, r3, #1081344	@ 0x108000
 800271e:	009b      	lsls	r3, r3, #2
 8002720:	2200      	movs	r2, #0
 8002722:	601a      	str	r2, [r3, #0]
 8002724:	f7fe ff40 	bl	80015a8 <HAL_GetTick>
 8002728:	f04f 7600 	mov.w	r6, #33554432	@ 0x2000000
 800272c:	4605      	mov	r5, r0
 800272e:	2701      	movs	r7, #1
 8002730:	fa96 f3a6 	rbit	r3, r6
 8002734:	6822      	ldr	r2, [r4, #0]
 8002736:	fa96 f3a6 	rbit	r3, r6
 800273a:	fab3 f383 	clz	r3, r3
 800273e:	fa07 f303 	lsl.w	r3, r7, r3
 8002742:	4213      	tst	r3, r2
 8002744:	f43f add6 	beq.w	80022f4 <HAL_RCC_OscConfig+0x30>
 8002748:	f7fe ff2e 	bl	80015a8 <HAL_GetTick>
 800274c:	1b40      	subs	r0, r0, r5
 800274e:	2802      	cmp	r0, #2
 8002750:	d9ee      	bls.n	8002730 <HAL_RCC_OscConfig+0x46c>
 8002752:	e618      	b.n	8002386 <HAL_RCC_OscConfig+0xc2>
 8002754:	2b01      	cmp	r3, #1
 8002756:	f43f adee 	beq.w	8002336 <HAL_RCC_OscConfig+0x72>
 800275a:	6860      	ldr	r0, [r4, #4]
 800275c:	6a2b      	ldr	r3, [r5, #32]
 800275e:	f400 3280 	and.w	r2, r0, #65536	@ 0x10000
 8002762:	429a      	cmp	r2, r3
 8002764:	f47f ade7 	bne.w	8002336 <HAL_RCC_OscConfig+0x72>
 8002768:	6a6b      	ldr	r3, [r5, #36]	@ 0x24
 800276a:	f400 1070 	and.w	r0, r0, #3932160	@ 0x3c0000
 800276e:	1ac0      	subs	r0, r0, r3
 8002770:	bf18      	it	ne
 8002772:	2001      	movne	r0, #1
 8002774:	e608      	b.n	8002388 <HAL_RCC_OscConfig+0xc4>
 8002776:	bf00      	nop
 8002778:	40021000 	.word	0x40021000

0800277c <HAL_RCC_GetSysClockFreq>:
 800277c:	4b0c      	ldr	r3, [pc, #48]	@ (80027b0 <HAL_RCC_GetSysClockFreq+0x34>)
 800277e:	685a      	ldr	r2, [r3, #4]
 8002780:	f002 010c 	and.w	r1, r2, #12
 8002784:	2908      	cmp	r1, #8
 8002786:	d111      	bne.n	80027ac <HAL_RCC_GetSysClockFreq+0x30>
 8002788:	6adb      	ldr	r3, [r3, #44]	@ 0x2c
 800278a:	480a      	ldr	r0, [pc, #40]	@ (80027b4 <HAL_RCC_GetSysClockFreq+0x38>)
 800278c:	f3c2 4183 	ubfx	r1, r2, #18, #4
 8002790:	03d2      	lsls	r2, r2, #15
 8002792:	bf44      	itt	mi
 8002794:	f003 030f 	andmi.w	r3, r3, #15
 8002798:	4a07      	ldrmi	r2, [pc, #28]	@ (80027b8 <HAL_RCC_GetSysClockFreq+0x3c>)
 800279a:	5c40      	ldrb	r0, [r0, r1]
 800279c:	bf49      	itett	mi
 800279e:	5cd2      	ldrbmi	r2, [r2, r3]
 80027a0:	4b06      	ldrpl	r3, [pc, #24]	@ (80027bc <HAL_RCC_GetSysClockFreq+0x40>)
 80027a2:	4b07      	ldrmi	r3, [pc, #28]	@ (80027c0 <HAL_RCC_GetSysClockFreq+0x44>)
 80027a4:	fbb3 f3f2 	udivmi	r3, r3, r2
 80027a8:	4358      	muls	r0, r3
 80027aa:	4770      	bx	lr
 80027ac:	4804      	ldr	r0, [pc, #16]	@ (80027c0 <HAL_RCC_GetSysClockFreq+0x44>)
 80027ae:	4770      	bx	lr
 80027b0:	40021000 	.word	0x40021000
 80027b4:	080045be 	.word	0x080045be
 80027b8:	080045ae 	.word	0x080045ae
 80027bc:	003d0900 	.word	0x003d0900
 80027c0:	007a1200 	.word	0x007a1200

080027c4 <HAL_RCC_ClockConfig>:
 80027c4:	e92d 41f0 	stmdb	sp!, {r4, r5, r6, r7, r8, lr}
 80027c8:	460d      	mov	r5, r1
 80027ca:	4604      	mov	r4, r0
 80027cc:	b910      	cbnz	r0, 80027d4 <HAL_RCC_ClockConfig+0x10>
 80027ce:	2001      	movs	r0, #1
 80027d0:	e8bd 81f0 	ldmia.w	sp!, {r4, r5, r6, r7, r8, pc}
 80027d4:	4a4a      	ldr	r2, [pc, #296]	@ (8002900 <HAL_RCC_ClockConfig+0x13c>)
 80027d6:	6813      	ldr	r3, [r2, #0]
 80027d8:	f003 0307 	and.w	r3, r3, #7
 80027dc:	428b      	cmp	r3, r1
 80027de:	d32e      	bcc.n	800283e <HAL_RCC_ClockConfig+0x7a>
 80027e0:	6822      	ldr	r2, [r4, #0]
 80027e2:	0791      	lsls	r1, r2, #30
 80027e4:	d436      	bmi.n	8002854 <HAL_RCC_ClockConfig+0x90>
 80027e6:	07d2      	lsls	r2, r2, #31
 80027e8:	d43c      	bmi.n	8002864 <HAL_RCC_ClockConfig+0xa0>
 80027ea:	4a45      	ldr	r2, [pc, #276]	@ (8002900 <HAL_RCC_ClockConfig+0x13c>)
 80027ec:	6813      	ldr	r3, [r2, #0]
 80027ee:	f003 0307 	and.w	r3, r3, #7
 80027f2:	42ab      	cmp	r3, r5
 80027f4:	d870      	bhi.n	80028d8 <HAL_RCC_ClockConfig+0x114>
 80027f6:	6822      	ldr	r2, [r4, #0]
 80027f8:	4d42      	ldr	r5, [pc, #264]	@ (8002904 <HAL_RCC_ClockConfig+0x140>)
 80027fa:	f012 0f04 	tst.w	r2, #4
 80027fe:	d177      	bne.n	80028f0 <HAL_RCC_ClockConfig+0x12c>
 8002800:	0713      	lsls	r3, r2, #28
 8002802:	d506      	bpl.n	8002812 <HAL_RCC_ClockConfig+0x4e>
 8002804:	686b      	ldr	r3, [r5, #4]
 8002806:	6922      	ldr	r2, [r4, #16]
 8002808:	f423 5360 	bic.w	r3, r3, #14336	@ 0x3800
 800280c:	ea43 03c2 	orr.w	r3, r3, r2, lsl #3
 8002810:	606b      	str	r3, [r5, #4]
 8002812:	f7ff ffb3 	bl	800277c <HAL_RCC_GetSysClockFreq>
 8002816:	686b      	ldr	r3, [r5, #4]
 8002818:	22f0      	movs	r2, #240	@ 0xf0
 800281a:	fa92 f2a2 	rbit	r2, r2
 800281e:	fab2 f282 	clz	r2, r2
 8002822:	f003 03f0 	and.w	r3, r3, #240	@ 0xf0
 8002826:	40d3      	lsrs	r3, r2
 8002828:	4a37      	ldr	r2, [pc, #220]	@ (8002908 <HAL_RCC_ClockConfig+0x144>)
 800282a:	5cd3      	ldrb	r3, [r2, r3]
 800282c:	40d8      	lsrs	r0, r3
 800282e:	4b37      	ldr	r3, [pc, #220]	@ (800290c <HAL_RCC_ClockConfig+0x148>)
 8002830:	6018      	str	r0, [r3, #0]
 8002832:	4b37      	ldr	r3, [pc, #220]	@ (8002910 <HAL_RCC_ClockConfig+0x14c>)
 8002834:	6818      	ldr	r0, [r3, #0]
 8002836:	f7fe fe75 	bl	8001524 <HAL_InitTick>
 800283a:	2000      	movs	r0, #0
 800283c:	e7c8      	b.n	80027d0 <HAL_RCC_ClockConfig+0xc>
 800283e:	6813      	ldr	r3, [r2, #0]
 8002840:	f023 0307 	bic.w	r3, r3, #7
 8002844:	430b      	orrs	r3, r1
 8002846:	6013      	str	r3, [r2, #0]
 8002848:	6813      	ldr	r3, [r2, #0]
 800284a:	f003 0307 	and.w	r3, r3, #7
 800284e:	428b      	cmp	r3, r1
 8002850:	d1bd      	bne.n	80027ce <HAL_RCC_ClockConfig+0xa>
 8002852:	e7c5      	b.n	80027e0 <HAL_RCC_ClockConfig+0x1c>
 8002854:	492b      	ldr	r1, [pc, #172]	@ (8002904 <HAL_RCC_ClockConfig+0x140>)
 8002856:	68a0      	ldr	r0, [r4, #8]
 8002858:	684b      	ldr	r3, [r1, #4]
 800285a:	f023 03f0 	bic.w	r3, r3, #240	@ 0xf0
 800285e:	4303      	orrs	r3, r0
 8002860:	604b      	str	r3, [r1, #4]
 8002862:	e7c0      	b.n	80027e6 <HAL_RCC_ClockConfig+0x22>
 8002864:	6862      	ldr	r2, [r4, #4]
 8002866:	4e27      	ldr	r6, [pc, #156]	@ (8002904 <HAL_RCC_ClockConfig+0x140>)
 8002868:	2a01      	cmp	r2, #1
 800286a:	d124      	bne.n	80028b6 <HAL_RCC_ClockConfig+0xf2>
 800286c:	f44f 3300 	mov.w	r3, #131072	@ 0x20000
 8002870:	fa93 f1a3 	rbit	r1, r3
 8002874:	6831      	ldr	r1, [r6, #0]
 8002876:	fa93 f3a3 	rbit	r3, r3
 800287a:	fab3 f383 	clz	r3, r3
 800287e:	fa02 f303 	lsl.w	r3, r2, r3
 8002882:	420b      	tst	r3, r1
 8002884:	d0a3      	beq.n	80027ce <HAL_RCC_ClockConfig+0xa>
 8002886:	6873      	ldr	r3, [r6, #4]
 8002888:	f023 0303 	bic.w	r3, r3, #3
 800288c:	4313      	orrs	r3, r2
 800288e:	6073      	str	r3, [r6, #4]
 8002890:	f7fe fe8a 	bl	80015a8 <HAL_GetTick>
 8002894:	f241 3888 	movw	r8, #5000	@ 0x1388
 8002898:	4607      	mov	r7, r0
 800289a:	6873      	ldr	r3, [r6, #4]
 800289c:	6862      	ldr	r2, [r4, #4]
 800289e:	f003 030c 	and.w	r3, r3, #12
 80028a2:	ebb3 0f82 	cmp.w	r3, r2, lsl #2
 80028a6:	d0a0      	beq.n	80027ea <HAL_RCC_ClockConfig+0x26>
 80028a8:	f7fe fe7e 	bl	80015a8 <HAL_GetTick>
 80028ac:	1bc0      	subs	r0, r0, r7
 80028ae:	4540      	cmp	r0, r8
 80028b0:	d9f3      	bls.n	800289a <HAL_RCC_ClockConfig+0xd6>
 80028b2:	2003      	movs	r0, #3
 80028b4:	e78c      	b.n	80027d0 <HAL_RCC_ClockConfig+0xc>
 80028b6:	2a02      	cmp	r2, #2
 80028b8:	bf0c      	ite	eq
 80028ba:	f04f 7300 	moveq.w	r3, #33554432	@ 0x2000000
 80028be:	2302      	movne	r3, #2
 80028c0:	fa93 f1a3 	rbit	r1, r3
 80028c4:	6830      	ldr	r0, [r6, #0]
 80028c6:	fa93 f3a3 	rbit	r3, r3
 80028ca:	2101      	movs	r1, #1
 80028cc:	fab3 f383 	clz	r3, r3
 80028d0:	fa01 f303 	lsl.w	r3, r1, r3
 80028d4:	4203      	tst	r3, r0
 80028d6:	e7d5      	b.n	8002884 <HAL_RCC_ClockConfig+0xc0>
 80028d8:	6813      	ldr	r3, [r2, #0]
 80028da:	f023 0307 	bic.w	r3, r3, #7
 80028de:	432b      	orrs	r3, r5
 80028e0:	6013      	str	r3, [r2, #0]
 80028e2:	6813      	ldr	r3, [r2, #0]
 80028e4:	f003 0307 	and.w	r3, r3, #7
 80028e8:	42ab      	cmp	r3, r5
 80028ea:	f47f af70 	bne.w	80027ce <HAL_RCC_ClockConfig+0xa>
 80028ee:	e782      	b.n	80027f6 <HAL_RCC_ClockConfig+0x32>
 80028f0:	686b      	ldr	r3, [r5, #4]
 80028f2:	68e1      	ldr	r1, [r4, #12]
 80028f4:	f423 63e0 	bic.w	r3, r3, #1792	@ 0x700
 80028f8:	430b      	orrs	r3, r1
 80028fa:	606b      	str	r3, [r5, #4]
 80028fc:	e780      	b.n	8002800 <HAL_RCC_ClockConfig+0x3c>
 80028fe:	bf00      	nop
 8002900:	40022000 	.word	0x40022000
 8002904:	40021000 	.word	0x40021000
 8002908:	0800459e 	.word	0x0800459e
 800290c:	20000014 	.word	0x20000014
 8002910:	2000001c 	.word	0x2000001c

08002914 <HAL_RCC_GetPCLK1Freq>:
 8002914:	4b08      	ldr	r3, [pc, #32]	@ (8002938 <HAL_RCC_GetPCLK1Freq+0x24>)
 8002916:	f44f 62e0 	mov.w	r2, #1792	@ 0x700
 800291a:	685b      	ldr	r3, [r3, #4]
 800291c:	fa92 f2a2 	rbit	r2, r2
 8002920:	fab2 f282 	clz	r2, r2
 8002924:	f403 63e0 	and.w	r3, r3, #1792	@ 0x700
 8002928:	40d3      	lsrs	r3, r2
 800292a:	4a04      	ldr	r2, [pc, #16]	@ (800293c <HAL_RCC_GetPCLK1Freq+0x28>)
 800292c:	5cd3      	ldrb	r3, [r2, r3]
 800292e:	4a04      	ldr	r2, [pc, #16]	@ (8002940 <HAL_RCC_GetPCLK1Freq+0x2c>)
 8002930:	6810      	ldr	r0, [r2, #0]
 8002932:	40d8      	lsrs	r0, r3
 8002934:	4770      	bx	lr
 8002936:	bf00      	nop
 8002938:	40021000 	.word	0x40021000
 800293c:	08004596 	.word	0x08004596
 8002940:	20000014 	.word	0x20000014

08002944 <HAL_RCC_GetPCLK2Freq>:
 8002944:	4b08      	ldr	r3, [pc, #32]	@ (8002968 <HAL_RCC_GetPCLK2Freq+0x24>)
 8002946:	f44f 5260 	mov.w	r2, #14336	@ 0x3800
 800294a:	685b      	ldr	r3, [r3, #4]
 800294c:	fa92 f2a2 	rbit	r2, r2
 8002950:	fab2 f282 	clz	r2, r2
 8002954:	f403 5360 	and.w	r3, r3, #14336	@ 0x3800
 8002958:	40d3      	lsrs	r3, r2
 800295a:	4a04      	ldr	r2, [pc, #16]	@ (800296c <HAL_RCC_GetPCLK2Freq+0x28>)
 800295c:	5cd3      	ldrb	r3, [r2, r3]
 800295e:	4a04      	ldr	r2, [pc, #16]	@ (8002970 <HAL_RCC_GetPCLK2Freq+0x2c>)
 8002960:	6810      	ldr	r0, [r2, #0]
 8002962:	40d8      	lsrs	r0, r3
 8002964:	4770      	bx	lr
 8002966:	bf00      	nop
 8002968:	40021000 	.word	0x40021000
 800296c:	08004596 	.word	0x08004596
 8002970:	20000014 	.word	0x20000014

08002974 <HAL_RCCEx_PeriphCLKConfig>:
 8002974:	6803      	ldr	r3, [r0, #0]
 8002976:	e92d 47f3 	stmdb	sp!, {r0, r1, r4, r5, r6, r7, r8, r9, sl, lr}
 800297a:	03dd      	lsls	r5, r3, #15
 800297c:	4604      	mov	r4, r0
 800297e:	d521      	bpl.n	80029c4 <HAL_RCCEx_PeriphCLKConfig+0x50>
 8002980:	4d68      	ldr	r5, [pc, #416]	@ (8002b24 <HAL_RCCEx_PeriphCLKConfig+0x1b0>)
 8002982:	69eb      	ldr	r3, [r5, #28]
 8002984:	00d8      	lsls	r0, r3, #3
 8002986:	d473      	bmi.n	8002a70 <HAL_RCCEx_PeriphCLKConfig+0xfc>
 8002988:	69eb      	ldr	r3, [r5, #28]
 800298a:	f043 5380 	orr.w	r3, r3, #268435456	@ 0x10000000
 800298e:	61eb      	str	r3, [r5, #28]
 8002990:	69eb      	ldr	r3, [r5, #28]
 8002992:	f003 5380 	and.w	r3, r3, #268435456	@ 0x10000000
 8002996:	9301      	str	r3, [sp, #4]
 8002998:	9b01      	ldr	r3, [sp, #4]
 800299a:	2601      	movs	r6, #1
 800299c:	4f62      	ldr	r7, [pc, #392]	@ (8002b28 <HAL_RCCEx_PeriphCLKConfig+0x1b4>)
 800299e:	683b      	ldr	r3, [r7, #0]
 80029a0:	05d9      	lsls	r1, r3, #23
 80029a2:	d567      	bpl.n	8002a74 <HAL_RCCEx_PeriphCLKConfig+0x100>
 80029a4:	6a2b      	ldr	r3, [r5, #32]
 80029a6:	6862      	ldr	r2, [r4, #4]
 80029a8:	f413 7340 	ands.w	r3, r3, #768	@ 0x300
 80029ac:	d176      	bne.n	8002a9c <HAL_RCCEx_PeriphCLKConfig+0x128>
 80029ae:	6a2b      	ldr	r3, [r5, #32]
 80029b0:	6862      	ldr	r2, [r4, #4]
 80029b2:	f423 7340 	bic.w	r3, r3, #768	@ 0x300
 80029b6:	4313      	orrs	r3, r2
 80029b8:	622b      	str	r3, [r5, #32]
 80029ba:	b11e      	cbz	r6, 80029c4 <HAL_RCCEx_PeriphCLKConfig+0x50>
 80029bc:	69eb      	ldr	r3, [r5, #28]
 80029be:	f023 5380 	bic.w	r3, r3, #268435456	@ 0x10000000
 80029c2:	61eb      	str	r3, [r5, #28]
 80029c4:	6823      	ldr	r3, [r4, #0]
 80029c6:	07d8      	lsls	r0, r3, #31
 80029c8:	d506      	bpl.n	80029d8 <HAL_RCCEx_PeriphCLKConfig+0x64>
 80029ca:	4956      	ldr	r1, [pc, #344]	@ (8002b24 <HAL_RCCEx_PeriphCLKConfig+0x1b0>)
 80029cc:	68a0      	ldr	r0, [r4, #8]
 80029ce:	6b0a      	ldr	r2, [r1, #48]	@ 0x30
 80029d0:	f022 0203 	bic.w	r2, r2, #3
 80029d4:	4302      	orrs	r2, r0
 80029d6:	630a      	str	r2, [r1, #48]	@ 0x30
 80029d8:	0699      	lsls	r1, r3, #26
 80029da:	d506      	bpl.n	80029ea <HAL_RCCEx_PeriphCLKConfig+0x76>
 80029dc:	4951      	ldr	r1, [pc, #324]	@ (8002b24 <HAL_RCCEx_PeriphCLKConfig+0x1b0>)
 80029de:	68e0      	ldr	r0, [r4, #12]
 80029e0:	6b0a      	ldr	r2, [r1, #48]	@ 0x30
 80029e2:	f022 0210 	bic.w	r2, r2, #16
 80029e6:	4302      	orrs	r2, r0
 80029e8:	630a      	str	r2, [r1, #48]	@ 0x30
 80029ea:	065a      	lsls	r2, r3, #25
 80029ec:	d506      	bpl.n	80029fc <HAL_RCCEx_PeriphCLKConfig+0x88>
 80029ee:	494d      	ldr	r1, [pc, #308]	@ (8002b24 <HAL_RCCEx_PeriphCLKConfig+0x1b0>)
 80029f0:	6920      	ldr	r0, [r4, #16]
 80029f2:	6b0a      	ldr	r2, [r1, #48]	@ 0x30
 80029f4:	f022 0220 	bic.w	r2, r2, #32
 80029f8:	4302      	orrs	r2, r0
 80029fa:	630a      	str	r2, [r1, #48]	@ 0x30
 80029fc:	041f      	lsls	r7, r3, #16
 80029fe:	d506      	bpl.n	8002a0e <HAL_RCCEx_PeriphCLKConfig+0x9a>
 8002a00:	4948      	ldr	r1, [pc, #288]	@ (8002b24 <HAL_RCCEx_PeriphCLKConfig+0x1b0>)
 8002a02:	6960      	ldr	r0, [r4, #20]
 8002a04:	6b0a      	ldr	r2, [r1, #48]	@ 0x30
 8002a06:	f022 0240 	bic.w	r2, r2, #64	@ 0x40
 8002a0a:	4302      	orrs	r2, r0
 8002a0c:	630a      	str	r2, [r1, #48]	@ 0x30
 8002a0e:	059e      	lsls	r6, r3, #22
 8002a10:	d506      	bpl.n	8002a20 <HAL_RCCEx_PeriphCLKConfig+0xac>
 8002a12:	4944      	ldr	r1, [pc, #272]	@ (8002b24 <HAL_RCCEx_PeriphCLKConfig+0x1b0>)
 8002a14:	69e0      	ldr	r0, [r4, #28]
 8002a16:	684a      	ldr	r2, [r1, #4]
 8002a18:	f422 0200 	bic.w	r2, r2, #8388608	@ 0x800000
 8002a1c:	4302      	orrs	r2, r0
 8002a1e:	604a      	str	r2, [r1, #4]
 8002a20:	061d      	lsls	r5, r3, #24
 8002a22:	d506      	bpl.n	8002a32 <HAL_RCCEx_PeriphCLKConfig+0xbe>
 8002a24:	493f      	ldr	r1, [pc, #252]	@ (8002b24 <HAL_RCCEx_PeriphCLKConfig+0x1b0>)
 8002a26:	69a0      	ldr	r0, [r4, #24]
 8002a28:	6aca      	ldr	r2, [r1, #44]	@ 0x2c
 8002a2a:	f422 72f8 	bic.w	r2, r2, #496	@ 0x1f0
 8002a2e:	4302      	orrs	r2, r0
 8002a30:	62ca      	str	r2, [r1, #44]	@ 0x2c
 8002a32:	04d8      	lsls	r0, r3, #19
 8002a34:	d506      	bpl.n	8002a44 <HAL_RCCEx_PeriphCLKConfig+0xd0>
 8002a36:	493b      	ldr	r1, [pc, #236]	@ (8002b24 <HAL_RCCEx_PeriphCLKConfig+0x1b0>)
 8002a38:	6a20      	ldr	r0, [r4, #32]
 8002a3a:	6b0a      	ldr	r2, [r1, #48]	@ 0x30
 8002a3c:	f422 7280 	bic.w	r2, r2, #256	@ 0x100
 8002a40:	4302      	orrs	r2, r0
 8002a42:	630a      	str	r2, [r1, #48]	@ 0x30
 8002a44:	0359      	lsls	r1, r3, #13
 8002a46:	d506      	bpl.n	8002a56 <HAL_RCCEx_PeriphCLKConfig+0xe2>
 8002a48:	4936      	ldr	r1, [pc, #216]	@ (8002b24 <HAL_RCCEx_PeriphCLKConfig+0x1b0>)
 8002a4a:	6a60      	ldr	r0, [r4, #36]	@ 0x24
 8002a4c:	6b0a      	ldr	r2, [r1, #48]	@ 0x30
 8002a4e:	f422 6280 	bic.w	r2, r2, #1024	@ 0x400
 8002a52:	4302      	orrs	r2, r0
 8002a54:	630a      	str	r2, [r1, #48]	@ 0x30
 8002a56:	031a      	lsls	r2, r3, #12
 8002a58:	d506      	bpl.n	8002a68 <HAL_RCCEx_PeriphCLKConfig+0xf4>
 8002a5a:	4932      	ldr	r1, [pc, #200]	@ (8002b24 <HAL_RCCEx_PeriphCLKConfig+0x1b0>)
 8002a5c:	6aa0      	ldr	r0, [r4, #40]	@ 0x28
 8002a5e:	6b0a      	ldr	r2, [r1, #48]	@ 0x30
 8002a60:	f422 6200 	bic.w	r2, r2, #2048	@ 0x800
 8002a64:	4302      	orrs	r2, r0
 8002a66:	630a      	str	r2, [r1, #48]	@ 0x30
 8002a68:	02db      	lsls	r3, r3, #11
 8002a6a:	d452      	bmi.n	8002b12 <HAL_RCCEx_PeriphCLKConfig+0x19e>
 8002a6c:	2000      	movs	r0, #0
 8002a6e:	e012      	b.n	8002a96 <HAL_RCCEx_PeriphCLKConfig+0x122>
 8002a70:	2600      	movs	r6, #0
 8002a72:	e793      	b.n	800299c <HAL_RCCEx_PeriphCLKConfig+0x28>
 8002a74:	683b      	ldr	r3, [r7, #0]
 8002a76:	f443 7380 	orr.w	r3, r3, #256	@ 0x100
 8002a7a:	603b      	str	r3, [r7, #0]
 8002a7c:	f7fe fd94 	bl	80015a8 <HAL_GetTick>
 8002a80:	4680      	mov	r8, r0
 8002a82:	683b      	ldr	r3, [r7, #0]
 8002a84:	05da      	lsls	r2, r3, #23
 8002a86:	d48d      	bmi.n	80029a4 <HAL_RCCEx_PeriphCLKConfig+0x30>
 8002a88:	f7fe fd8e 	bl	80015a8 <HAL_GetTick>
 8002a8c:	eba0 0008 	sub.w	r0, r0, r8
 8002a90:	2864      	cmp	r0, #100	@ 0x64
 8002a92:	d9f6      	bls.n	8002a82 <HAL_RCCEx_PeriphCLKConfig+0x10e>
 8002a94:	2003      	movs	r0, #3
 8002a96:	b002      	add	sp, #8
 8002a98:	e8bd 87f0 	ldmia.w	sp!, {r4, r5, r6, r7, r8, r9, sl, pc}
 8002a9c:	f402 7240 	and.w	r2, r2, #768	@ 0x300
 8002aa0:	429a      	cmp	r2, r3
 8002aa2:	d084      	beq.n	80029ae <HAL_RCCEx_PeriphCLKConfig+0x3a>
 8002aa4:	6a29      	ldr	r1, [r5, #32]
 8002aa6:	f44f 3380 	mov.w	r3, #65536	@ 0x10000
 8002aaa:	f421 7040 	bic.w	r0, r1, #768	@ 0x300
 8002aae:	fa93 f2a3 	rbit	r2, r3
 8002ab2:	f8df c078 	ldr.w	ip, [pc, #120]	@ 8002b2c <HAL_RCCEx_PeriphCLKConfig+0x1b8>
 8002ab6:	fab2 f282 	clz	r2, r2
 8002aba:	4462      	add	r2, ip
 8002abc:	0092      	lsls	r2, r2, #2
 8002abe:	2701      	movs	r7, #1
 8002ac0:	6017      	str	r7, [r2, #0]
 8002ac2:	fa93 f3a3 	rbit	r3, r3
 8002ac6:	fab3 f383 	clz	r3, r3
 8002aca:	4463      	add	r3, ip
 8002acc:	009b      	lsls	r3, r3, #2
 8002ace:	2200      	movs	r2, #0
 8002ad0:	601a      	str	r2, [r3, #0]
 8002ad2:	07cb      	lsls	r3, r1, #31
 8002ad4:	6228      	str	r0, [r5, #32]
 8002ad6:	f57f af6a 	bpl.w	80029ae <HAL_RCCEx_PeriphCLKConfig+0x3a>
 8002ada:	f7fe fd65 	bl	80015a8 <HAL_GetTick>
 8002ade:	f04f 0802 	mov.w	r8, #2
 8002ae2:	4681      	mov	r9, r0
 8002ae4:	f241 3a88 	movw	sl, #5000	@ 0x1388
 8002ae8:	fa98 f3a8 	rbit	r3, r8
 8002aec:	fa98 f3a8 	rbit	r3, r8
 8002af0:	6a2a      	ldr	r2, [r5, #32]
 8002af2:	fa98 f3a8 	rbit	r3, r8
 8002af6:	fab3 f383 	clz	r3, r3
 8002afa:	fa07 f303 	lsl.w	r3, r7, r3
 8002afe:	4213      	tst	r3, r2
 8002b00:	f47f af55 	bne.w	80029ae <HAL_RCCEx_PeriphCLKConfig+0x3a>
 8002b04:	f7fe fd50 	bl	80015a8 <HAL_GetTick>
 8002b08:	eba0 0009 	sub.w	r0, r0, r9
 8002b0c:	4550      	cmp	r0, sl
 8002b0e:	d9eb      	bls.n	8002ae8 <HAL_RCCEx_PeriphCLKConfig+0x174>
 8002b10:	e7c0      	b.n	8002a94 <HAL_RCCEx_PeriphCLKConfig+0x120>
 8002b12:	4a04      	ldr	r2, [pc, #16]	@ (8002b24 <HAL_RCCEx_PeriphCLKConfig+0x1b0>)
 8002b14:	6ae1      	ldr	r1, [r4, #44]	@ 0x2c
 8002b16:	6b13      	ldr	r3, [r2, #48]	@ 0x30
 8002b18:	f423 5300 	bic.w	r3, r3, #8192	@ 0x2000
 8002b1c:	430b      	orrs	r3, r1
 8002b1e:	6313      	str	r3, [r2, #48]	@ 0x30
 8002b20:	e7a4      	b.n	8002a6c <HAL_RCCEx_PeriphCLKConfig+0xf8>
 8002b22:	bf00      	nop
 8002b24:	40021000 	.word	0x40021000
 8002b28:	40007000 	.word	0x40007000
 8002b2c:	10908100 	.word	0x10908100

08002b30 <TIM_OC1_SetConfig>:
 8002b30:	6a03      	ldr	r3, [r0, #32]
 8002b32:	6a02      	ldr	r2, [r0, #32]
 8002b34:	f022 0201 	bic.w	r2, r2, #1
 8002b38:	b570      	push	{r4, r5, r6, lr}
 8002b3a:	6202      	str	r2, [r0, #32]
 8002b3c:	6842      	ldr	r2, [r0, #4]
 8002b3e:	6984      	ldr	r4, [r0, #24]
 8002b40:	680d      	ldr	r5, [r1, #0]
 8002b42:	f424 3480 	bic.w	r4, r4, #65536	@ 0x10000
 8002b46:	f024 0473 	bic.w	r4, r4, #115	@ 0x73
 8002b4a:	432c      	orrs	r4, r5
 8002b4c:	688d      	ldr	r5, [r1, #8]
 8002b4e:	f023 0302 	bic.w	r3, r3, #2
 8002b52:	432b      	orrs	r3, r5
 8002b54:	4d10      	ldr	r5, [pc, #64]	@ (8002b98 <TIM_OC1_SetConfig+0x68>)
 8002b56:	42a8      	cmp	r0, r5
 8002b58:	d00b      	beq.n	8002b72 <TIM_OC1_SetConfig+0x42>
 8002b5a:	f505 55a0 	add.w	r5, r5, #5120	@ 0x1400
 8002b5e:	42a8      	cmp	r0, r5
 8002b60:	d007      	beq.n	8002b72 <TIM_OC1_SetConfig+0x42>
 8002b62:	f505 6580 	add.w	r5, r5, #1024	@ 0x400
 8002b66:	42a8      	cmp	r0, r5
 8002b68:	d003      	beq.n	8002b72 <TIM_OC1_SetConfig+0x42>
 8002b6a:	f505 6580 	add.w	r5, r5, #1024	@ 0x400
 8002b6e:	42a8      	cmp	r0, r5
 8002b70:	d10b      	bne.n	8002b8a <TIM_OC1_SetConfig+0x5a>
 8002b72:	68cd      	ldr	r5, [r1, #12]
 8002b74:	f023 0308 	bic.w	r3, r3, #8
 8002b78:	432b      	orrs	r3, r5
 8002b7a:	e9d1 5605 	ldrd	r5, r6, [r1, #20]
 8002b7e:	f422 7240 	bic.w	r2, r2, #768	@ 0x300
 8002b82:	4335      	orrs	r5, r6
 8002b84:	f023 0304 	bic.w	r3, r3, #4
 8002b88:	432a      	orrs	r2, r5
 8002b8a:	6042      	str	r2, [r0, #4]
 8002b8c:	684a      	ldr	r2, [r1, #4]
 8002b8e:	6184      	str	r4, [r0, #24]
 8002b90:	6342      	str	r2, [r0, #52]	@ 0x34
 8002b92:	6203      	str	r3, [r0, #32]
 8002b94:	bd70      	pop	{r4, r5, r6, pc}
 8002b96:	bf00      	nop
 8002b98:	40012c00 	.word	0x40012c00

08002b9c <TIM_OC3_SetConfig>:
 8002b9c:	6a03      	ldr	r3, [r0, #32]
 8002b9e:	6a02      	ldr	r2, [r0, #32]
 8002ba0:	f422 7280 	bic.w	r2, r2, #256	@ 0x100
 8002ba4:	b570      	push	{r4, r5, r6, lr}
 8002ba6:	6202      	str	r2, [r0, #32]
 8002ba8:	6842      	ldr	r2, [r0, #4]
 8002baa:	69c4      	ldr	r4, [r0, #28]
 8002bac:	680d      	ldr	r5, [r1, #0]
 8002bae:	f424 3480 	bic.w	r4, r4, #65536	@ 0x10000
 8002bb2:	f024 0473 	bic.w	r4, r4, #115	@ 0x73
 8002bb6:	432c      	orrs	r4, r5
 8002bb8:	688d      	ldr	r5, [r1, #8]
 8002bba:	f423 7300 	bic.w	r3, r3, #512	@ 0x200
 8002bbe:	ea43 2305 	orr.w	r3, r3, r5, lsl #8
 8002bc2:	4d11      	ldr	r5, [pc, #68]	@ (8002c08 <TIM_OC3_SetConfig+0x6c>)
 8002bc4:	42a8      	cmp	r0, r5
 8002bc6:	d10e      	bne.n	8002be6 <TIM_OC3_SetConfig+0x4a>
 8002bc8:	68cd      	ldr	r5, [r1, #12]
 8002bca:	f423 6300 	bic.w	r3, r3, #2048	@ 0x800
 8002bce:	ea43 2305 	orr.w	r3, r3, r5, lsl #8
 8002bd2:	f423 6380 	bic.w	r3, r3, #1024	@ 0x400
 8002bd6:	e9d1 5605 	ldrd	r5, r6, [r1, #20]
 8002bda:	f422 5240 	bic.w	r2, r2, #12288	@ 0x3000
 8002bde:	4335      	orrs	r5, r6
 8002be0:	ea42 1205 	orr.w	r2, r2, r5, lsl #4
 8002be4:	e00a      	b.n	8002bfc <TIM_OC3_SetConfig+0x60>
 8002be6:	4d09      	ldr	r5, [pc, #36]	@ (8002c0c <TIM_OC3_SetConfig+0x70>)
 8002be8:	42a8      	cmp	r0, r5
 8002bea:	d0f4      	beq.n	8002bd6 <TIM_OC3_SetConfig+0x3a>
 8002bec:	f505 6580 	add.w	r5, r5, #1024	@ 0x400
 8002bf0:	42a8      	cmp	r0, r5
 8002bf2:	d0f0      	beq.n	8002bd6 <TIM_OC3_SetConfig+0x3a>
 8002bf4:	f505 6580 	add.w	r5, r5, #1024	@ 0x400
 8002bf8:	42a8      	cmp	r0, r5
 8002bfa:	d0ec      	beq.n	8002bd6 <TIM_OC3_SetConfig+0x3a>
 8002bfc:	6042      	str	r2, [r0, #4]
 8002bfe:	684a      	ldr	r2, [r1, #4]
 8002c00:	61c4      	str	r4, [r0, #28]
 8002c02:	63c2      	str	r2, [r0, #60]	@ 0x3c
 8002c04:	6203      	str	r3, [r0, #32]
 8002c06:	bd70      	pop	{r4, r5, r6, pc}
 8002c08:	40012c00 	.word	0x40012c00
 8002c0c:	40014000 	.word	0x40014000

08002c10 <TIM_OC4_SetConfig>:
 8002c10:	6a02      	ldr	r2, [r0, #32]
 8002c12:	6a03      	ldr	r3, [r0, #32]
 8002c14:	f423 5380 	bic.w	r3, r3, #4096	@ 0x1000
 8002c18:	b530      	push	{r4, r5, lr}
 8002c1a:	6203      	str	r3, [r0, #32]
 8002c1c:	6844      	ldr	r4, [r0, #4]
 8002c1e:	69c3      	ldr	r3, [r0, #28]
 8002c20:	680d      	ldr	r5, [r1, #0]
 8002c22:	f023 7380 	bic.w	r3, r3, #16777216	@ 0x1000000
 8002c26:	f423 43e6 	bic.w	r3, r3, #29440	@ 0x7300
 8002c2a:	ea43 2305 	orr.w	r3, r3, r5, lsl #8
 8002c2e:	688d      	ldr	r5, [r1, #8]
 8002c30:	f422 5200 	bic.w	r2, r2, #8192	@ 0x2000
 8002c34:	ea42 3205 	orr.w	r2, r2, r5, lsl #12
 8002c38:	4d0c      	ldr	r5, [pc, #48]	@ (8002c6c <TIM_OC4_SetConfig+0x5c>)
 8002c3a:	42a8      	cmp	r0, r5
 8002c3c:	d00b      	beq.n	8002c56 <TIM_OC4_SetConfig+0x46>
 8002c3e:	f505 55a0 	add.w	r5, r5, #5120	@ 0x1400
 8002c42:	42a8      	cmp	r0, r5
 8002c44:	d007      	beq.n	8002c56 <TIM_OC4_SetConfig+0x46>
 8002c46:	f505 6580 	add.w	r5, r5, #1024	@ 0x400
 8002c4a:	42a8      	cmp	r0, r5
 8002c4c:	d003      	beq.n	8002c56 <TIM_OC4_SetConfig+0x46>
 8002c4e:	f505 6580 	add.w	r5, r5, #1024	@ 0x400
 8002c52:	42a8      	cmp	r0, r5
 8002c54:	d104      	bne.n	8002c60 <TIM_OC4_SetConfig+0x50>
 8002c56:	694d      	ldr	r5, [r1, #20]
 8002c58:	f424 4480 	bic.w	r4, r4, #16384	@ 0x4000
 8002c5c:	ea44 1485 	orr.w	r4, r4, r5, lsl #6
 8002c60:	6044      	str	r4, [r0, #4]
 8002c62:	61c3      	str	r3, [r0, #28]
 8002c64:	684b      	ldr	r3, [r1, #4]
 8002c66:	6403      	str	r3, [r0, #64]	@ 0x40
 8002c68:	6202      	str	r2, [r0, #32]
 8002c6a:	bd30      	pop	{r4, r5, pc}
 8002c6c:	40012c00 	.word	0x40012c00

08002c70 <TIM_OC5_SetConfig>:
 8002c70:	6a02      	ldr	r2, [r0, #32]
 8002c72:	6a03      	ldr	r3, [r0, #32]
 8002c74:	f423 3380 	bic.w	r3, r3, #65536	@ 0x10000
 8002c78:	b530      	push	{r4, r5, lr}
 8002c7a:	6203      	str	r3, [r0, #32]
 8002c7c:	6844      	ldr	r4, [r0, #4]
 8002c7e:	6d43      	ldr	r3, [r0, #84]	@ 0x54
 8002c80:	680d      	ldr	r5, [r1, #0]
 8002c82:	f423 3380 	bic.w	r3, r3, #65536	@ 0x10000
 8002c86:	f023 0370 	bic.w	r3, r3, #112	@ 0x70
 8002c8a:	432b      	orrs	r3, r5
 8002c8c:	688d      	ldr	r5, [r1, #8]
 8002c8e:	f422 3200 	bic.w	r2, r2, #131072	@ 0x20000
 8002c92:	ea42 4205 	orr.w	r2, r2, r5, lsl #16
 8002c96:	4d0d      	ldr	r5, [pc, #52]	@ (8002ccc <TIM_OC5_SetConfig+0x5c>)
 8002c98:	42a8      	cmp	r0, r5
 8002c9a:	d00b      	beq.n	8002cb4 <TIM_OC5_SetConfig+0x44>
 8002c9c:	f505 55a0 	add.w	r5, r5, #5120	@ 0x1400
 8002ca0:	42a8      	cmp	r0, r5
 8002ca2:	d007      	beq.n	8002cb4 <TIM_OC5_SetConfig+0x44>
 8002ca4:	f505 6580 	add.w	r5, r5, #1024	@ 0x400
 8002ca8:	42a8      	cmp	r0, r5
 8002caa:	d003      	beq.n	8002cb4 <TIM_OC5_SetConfig+0x44>
 8002cac:	f505 6580 	add.w	r5, r5, #1024	@ 0x400
 8002cb0:	42a8      	cmp	r0, r5
 8002cb2:	d104      	bne.n	8002cbe <TIM_OC5_SetConfig+0x4e>
 8002cb4:	694d      	ldr	r5, [r1, #20]
 8002cb6:	f424 3480 	bic.w	r4, r4, #65536	@ 0x10000
 8002cba:	ea44 2405 	orr.w	r4, r4, r5, lsl #8
 8002cbe:	6044      	str	r4, [r0, #4]
 8002cc0:	6543      	str	r3, [r0, #84]	@ 0x54
 8002cc2:	684b      	ldr	r3, [r1, #4]
 8002cc4:	6583      	str	r3, [r0, #88]	@ 0x58
 8002cc6:	6202      	str	r2, [r0, #32]
 8002cc8:	bd30      	pop	{r4, r5, pc}
 8002cca:	bf00      	nop
 8002ccc:	40012c00 	.word	0x40012c00

08002cd0 <TIM_OC6_SetConfig>:
 8002cd0:	6a02      	ldr	r2, [r0, #32]
 8002cd2:	6a03      	ldr	r3, [r0, #32]
 8002cd4:	f423 1380 	bic.w	r3, r3, #1048576	@ 0x100000
 8002cd8:	b530      	push	{r4, r5, lr}
 8002cda:	6203      	str	r3, [r0, #32]
 8002cdc:	6844      	ldr	r4, [r0, #4]
 8002cde:	6d43      	ldr	r3, [r0, #84]	@ 0x54
 8002ce0:	680d      	ldr	r5, [r1, #0]
 8002ce2:	f023 7380 	bic.w	r3, r3, #16777216	@ 0x1000000
 8002ce6:	f423 43e0 	bic.w	r3, r3, #28672	@ 0x7000
 8002cea:	ea43 2305 	orr.w	r3, r3, r5, lsl #8
 8002cee:	688d      	ldr	r5, [r1, #8]
 8002cf0:	f422 1200 	bic.w	r2, r2, #2097152	@ 0x200000
 8002cf4:	ea42 5205 	orr.w	r2, r2, r5, lsl #20
 8002cf8:	4d0c      	ldr	r5, [pc, #48]	@ (8002d2c <TIM_OC6_SetConfig+0x5c>)
 8002cfa:	42a8      	cmp	r0, r5
 8002cfc:	d00b      	beq.n	8002d16 <TIM_OC6_SetConfig+0x46>
 8002cfe:	f505 55a0 	add.w	r5, r5, #5120	@ 0x1400
 8002d02:	42a8      	cmp	r0, r5
 8002d04:	d007      	beq.n	8002d16 <TIM_OC6_SetConfig+0x46>
 8002d06:	f505 6580 	add.w	r5, r5, #1024	@ 0x400
 8002d0a:	42a8      	cmp	r0, r5
 8002d0c:	d003      	beq.n	8002d16 <TIM_OC6_SetConfig+0x46>
 8002d0e:	f505 6580 	add.w	r5, r5, #1024	@ 0x400
 8002d12:	42a8      	cmp	r0, r5
 8002d14:	d104      	bne.n	8002d20 <TIM_OC6_SetConfig+0x50>
 8002d16:	694d      	ldr	r5, [r1, #20]
 8002d18:	f424 2480 	bic.w	r4, r4, #262144	@ 0x40000
 8002d1c:	ea44 2485 	orr.w	r4, r4, r5, lsl #10
 8002d20:	6044      	str	r4, [r0, #4]
 8002d22:	6543      	str	r3, [r0, #84]	@ 0x54
 8002d24:	684b      	ldr	r3, [r1, #4]
 8002d26:	65c3      	str	r3, [r0, #92]	@ 0x5c
 8002d28:	6202      	str	r2, [r0, #32]
 8002d2a:	bd30      	pop	{r4, r5, pc}
 8002d2c:	40012c00 	.word	0x40012c00

08002d30 <HAL_TIM_Base_Start>:
 8002d30:	f890 303d 	ldrb.w	r3, [r0, #61]	@ 0x3d
 8002d34:	2b01      	cmp	r3, #1
 8002d36:	d11b      	bne.n	8002d70 <HAL_TIM_Base_Start+0x40>
 8002d38:	2302      	movs	r3, #2
 8002d3a:	4a0e      	ldr	r2, [pc, #56]	@ (8002d74 <HAL_TIM_Base_Start+0x44>)
 8002d3c:	f880 303d 	strb.w	r3, [r0, #61]	@ 0x3d
 8002d40:	6803      	ldr	r3, [r0, #0]
 8002d42:	4293      	cmp	r3, r2
 8002d44:	d006      	beq.n	8002d54 <HAL_TIM_Base_Start+0x24>
 8002d46:	f1b3 4f80 	cmp.w	r3, #1073741824	@ 0x40000000
 8002d4a:	d003      	beq.n	8002d54 <HAL_TIM_Base_Start+0x24>
 8002d4c:	f502 52a0 	add.w	r2, r2, #5120	@ 0x1400
 8002d50:	4293      	cmp	r3, r2
 8002d52:	d107      	bne.n	8002d64 <HAL_TIM_Base_Start+0x34>
 8002d54:	6899      	ldr	r1, [r3, #8]
 8002d56:	4a08      	ldr	r2, [pc, #32]	@ (8002d78 <HAL_TIM_Base_Start+0x48>)
 8002d58:	400a      	ands	r2, r1
 8002d5a:	2a06      	cmp	r2, #6
 8002d5c:	d006      	beq.n	8002d6c <HAL_TIM_Base_Start+0x3c>
 8002d5e:	f5b2 3f80 	cmp.w	r2, #65536	@ 0x10000
 8002d62:	d003      	beq.n	8002d6c <HAL_TIM_Base_Start+0x3c>
 8002d64:	681a      	ldr	r2, [r3, #0]
 8002d66:	f042 0201 	orr.w	r2, r2, #1
 8002d6a:	601a      	str	r2, [r3, #0]
 8002d6c:	2000      	movs	r0, #0
 8002d6e:	4770      	bx	lr
 8002d70:	2001      	movs	r0, #1
 8002d72:	4770      	bx	lr
 8002d74:	40012c00 	.word	0x40012c00
 8002d78:	00010007 	.word	0x00010007

08002d7c <HAL_TIM_PWM_MspInit>:
 8002d7c:	4770      	bx	lr
	...

08002d80 <TIM_Base_SetConfig>:
 8002d80:	4a1f      	ldr	r2, [pc, #124]	@ (8002e00 <TIM_Base_SetConfig+0x80>)
 8002d82:	6803      	ldr	r3, [r0, #0]
 8002d84:	4290      	cmp	r0, r2
 8002d86:	d00b      	beq.n	8002da0 <TIM_Base_SetConfig+0x20>
 8002d88:	f1b0 4f80 	cmp.w	r0, #1073741824	@ 0x40000000
 8002d8c:	d008      	beq.n	8002da0 <TIM_Base_SetConfig+0x20>
 8002d8e:	f502 52a0 	add.w	r2, r2, #5120	@ 0x1400
 8002d92:	4290      	cmp	r0, r2
 8002d94:	d109      	bne.n	8002daa <TIM_Base_SetConfig+0x2a>
 8002d96:	68ca      	ldr	r2, [r1, #12]
 8002d98:	f423 7340 	bic.w	r3, r3, #768	@ 0x300
 8002d9c:	4313      	orrs	r3, r2
 8002d9e:	e00b      	b.n	8002db8 <TIM_Base_SetConfig+0x38>
 8002da0:	684a      	ldr	r2, [r1, #4]
 8002da2:	f023 0370 	bic.w	r3, r3, #112	@ 0x70
 8002da6:	4313      	orrs	r3, r2
 8002da8:	e7f5      	b.n	8002d96 <TIM_Base_SetConfig+0x16>
 8002daa:	4a16      	ldr	r2, [pc, #88]	@ (8002e04 <TIM_Base_SetConfig+0x84>)
 8002dac:	4290      	cmp	r0, r2
 8002dae:	d0f2      	beq.n	8002d96 <TIM_Base_SetConfig+0x16>
 8002db0:	f502 6280 	add.w	r2, r2, #1024	@ 0x400
 8002db4:	4290      	cmp	r0, r2
 8002db6:	d0ee      	beq.n	8002d96 <TIM_Base_SetConfig+0x16>
 8002db8:	694a      	ldr	r2, [r1, #20]
 8002dba:	f023 0380 	bic.w	r3, r3, #128	@ 0x80
 8002dbe:	4313      	orrs	r3, r2
 8002dc0:	6003      	str	r3, [r0, #0]
 8002dc2:	688b      	ldr	r3, [r1, #8]
 8002dc4:	62c3      	str	r3, [r0, #44]	@ 0x2c
 8002dc6:	680b      	ldr	r3, [r1, #0]
 8002dc8:	6283      	str	r3, [r0, #40]	@ 0x28
 8002dca:	4b0d      	ldr	r3, [pc, #52]	@ (8002e00 <TIM_Base_SetConfig+0x80>)
 8002dcc:	4298      	cmp	r0, r3
 8002dce:	d00b      	beq.n	8002de8 <TIM_Base_SetConfig+0x68>
 8002dd0:	f503 53a0 	add.w	r3, r3, #5120	@ 0x1400
 8002dd4:	4298      	cmp	r0, r3
 8002dd6:	d007      	beq.n	8002de8 <TIM_Base_SetConfig+0x68>
 8002dd8:	f503 6380 	add.w	r3, r3, #1024	@ 0x400
 8002ddc:	4298      	cmp	r0, r3
 8002dde:	d003      	beq.n	8002de8 <TIM_Base_SetConfig+0x68>
 8002de0:	f503 6380 	add.w	r3, r3, #1024	@ 0x400
 8002de4:	4298      	cmp	r0, r3
 8002de6:	d101      	bne.n	8002dec <TIM_Base_SetConfig+0x6c>
 8002de8:	690b      	ldr	r3, [r1, #16]
 8002dea:	6303      	str	r3, [r0, #48]	@ 0x30
 8002dec:	2301      	movs	r3, #1
 8002dee:	6143      	str	r3, [r0, #20]
 8002df0:	6903      	ldr	r3, [r0, #16]
 8002df2:	07db      	lsls	r3, r3, #31
 8002df4:	bf42      	ittt	mi
 8002df6:	6903      	ldrmi	r3, [r0, #16]
 8002df8:	f023 0301 	bicmi.w	r3, r3, #1
 8002dfc:	6103      	strmi	r3, [r0, #16]
 8002dfe:	4770      	bx	lr
 8002e00:	40012c00 	.word	0x40012c00
 8002e04:	40014400 	.word	0x40014400

08002e08 <HAL_TIM_Base_Init>:
 8002e08:	b510      	push	{r4, lr}
 8002e0a:	4604      	mov	r4, r0
 8002e0c:	b350      	cbz	r0, 8002e64 <HAL_TIM_Base_Init+0x5c>
 8002e0e:	f890 303d 	ldrb.w	r3, [r0, #61]	@ 0x3d
 8002e12:	f003 02ff 	and.w	r2, r3, #255	@ 0xff
 8002e16:	b91b      	cbnz	r3, 8002e20 <HAL_TIM_Base_Init+0x18>
 8002e18:	f880 203c 	strb.w	r2, [r0, #60]	@ 0x3c
 8002e1c:	f7fe f9fe 	bl	800121c <HAL_TIM_Base_MspInit>
 8002e20:	2302      	movs	r3, #2
 8002e22:	6820      	ldr	r0, [r4, #0]
 8002e24:	f884 303d 	strb.w	r3, [r4, #61]	@ 0x3d
 8002e28:	1d21      	adds	r1, r4, #4
 8002e2a:	f7ff ffa9 	bl	8002d80 <TIM_Base_SetConfig>
 8002e2e:	2301      	movs	r3, #1
 8002e30:	f884 3048 	strb.w	r3, [r4, #72]	@ 0x48
 8002e34:	2000      	movs	r0, #0
 8002e36:	f884 303e 	strb.w	r3, [r4, #62]	@ 0x3e
 8002e3a:	f884 303f 	strb.w	r3, [r4, #63]	@ 0x3f
 8002e3e:	f884 3040 	strb.w	r3, [r4, #64]	@ 0x40
 8002e42:	f884 3041 	strb.w	r3, [r4, #65]	@ 0x41
 8002e46:	f884 3042 	strb.w	r3, [r4, #66]	@ 0x42
 8002e4a:	f884 3043 	strb.w	r3, [r4, #67]	@ 0x43
 8002e4e:	f884 3044 	strb.w	r3, [r4, #68]	@ 0x44
 8002e52:	f884 3045 	strb.w	r3, [r4, #69]	@ 0x45
 8002e56:	f884 3046 	strb.w	r3, [r4, #70]	@ 0x46
 8002e5a:	f884 3047 	strb.w	r3, [r4, #71]	@ 0x47
 8002e5e:	f884 303d 	strb.w	r3, [r4, #61]	@ 0x3d
 8002e62:	bd10      	pop	{r4, pc}
 8002e64:	2001      	movs	r0, #1
 8002e66:	e7fc      	b.n	8002e62 <HAL_TIM_Base_Init+0x5a>

08002e68 <HAL_TIM_PWM_Init>:
 8002e68:	b510      	push	{r4, lr}
 8002e6a:	4604      	mov	r4, r0
 8002e6c:	b350      	cbz	r0, 8002ec4 <HAL_TIM_PWM_Init+0x5c>
 8002e6e:	f890 303d 	ldrb.w	r3, [r0, #61]	@ 0x3d
 8002e72:	f003 02ff 	and.w	r2, r3, #255	@ 0xff
 8002e76:	b91b      	cbnz	r3, 8002e80 <HAL_TIM_PWM_Init+0x18>
 8002e78:	f880 203c 	strb.w	r2, [r0, #60]	@ 0x3c
 8002e7c:	f7ff ff7e 	bl	8002d7c <HAL_TIM_PWM_MspInit>
 8002e80:	2302      	movs	r3, #2
 8002e82:	6820      	ldr	r0, [r4, #0]
 8002e84:	f884 303d 	strb.w	r3, [r4, #61]	@ 0x3d
 8002e88:	1d21      	adds	r1, r4, #4
 8002e8a:	f7ff ff79 	bl	8002d80 <TIM_Base_SetConfig>
 8002e8e:	2301      	movs	r3, #1
 8002e90:	f884 3048 	strb.w	r3, [r4, #72]	@ 0x48
 8002e94:	2000      	movs	r0, #0
 8002e96:	f884 303e 	strb.w	r3, [r4, #62]	@ 0x3e
 8002e9a:	f884 303f 	strb.w	r3, [r4, #63]	@ 0x3f
 8002e9e:	f884 3040 	strb.w	r3, [r4, #64]	@ 0x40
 8002ea2:	f884 3041 	strb.w	r3, [r4, #65]	@ 0x41
 8002ea6:	f884 3042 	strb.w	r3, [r4, #66]	@ 0x42
 8002eaa:	f884 3043 	strb.w	r3, [r4, #67]	@ 0x43
 8002eae:	f884 3044 	strb.w	r3, [r4, #68]	@ 0x44
 8002eb2:	f884 3045 	strb.w	r3, [r4, #69]	@ 0x45
 8002eb6:	f884 3046 	strb.w	r3, [r4, #70]	@ 0x46
 8002eba:	f884 3047 	strb.w	r3, [r4, #71]	@ 0x47
 8002ebe:	f884 303d 	strb.w	r3, [r4, #61]	@ 0x3d
 8002ec2:	bd10      	pop	{r4, pc}
 8002ec4:	2001      	movs	r0, #1
 8002ec6:	e7fc      	b.n	8002ec2 <HAL_TIM_PWM_Init+0x5a>

08002ec8 <TIM_OC2_SetConfig>:
 8002ec8:	6a03      	ldr	r3, [r0, #32]
 8002eca:	6a02      	ldr	r2, [r0, #32]
 8002ecc:	f022 0210 	bic.w	r2, r2, #16
 8002ed0:	b570      	push	{r4, r5, r6, lr}
 8002ed2:	6202      	str	r2, [r0, #32]
 8002ed4:	6842      	ldr	r2, [r0, #4]
 8002ed6:	6984      	ldr	r4, [r0, #24]
 8002ed8:	680d      	ldr	r5, [r1, #0]
 8002eda:	f024 7480 	bic.w	r4, r4, #16777216	@ 0x1000000
 8002ede:	f424 44e6 	bic.w	r4, r4, #29440	@ 0x7300
 8002ee2:	ea44 2405 	orr.w	r4, r4, r5, lsl #8
 8002ee6:	688d      	ldr	r5, [r1, #8]
 8002ee8:	f023 0320 	bic.w	r3, r3, #32
 8002eec:	ea43 1305 	orr.w	r3, r3, r5, lsl #4
 8002ef0:	4d11      	ldr	r5, [pc, #68]	@ (8002f38 <TIM_OC2_SetConfig+0x70>)
 8002ef2:	42a8      	cmp	r0, r5
 8002ef4:	d10e      	bne.n	8002f14 <TIM_OC2_SetConfig+0x4c>
 8002ef6:	68cd      	ldr	r5, [r1, #12]
 8002ef8:	f023 0380 	bic.w	r3, r3, #128	@ 0x80
 8002efc:	ea43 1305 	orr.w	r3, r3, r5, lsl #4
 8002f00:	f023 0340 	bic.w	r3, r3, #64	@ 0x40
 8002f04:	e9d1 5605 	ldrd	r5, r6, [r1, #20]
 8002f08:	f422 6240 	bic.w	r2, r2, #3072	@ 0xc00
 8002f0c:	4335      	orrs	r5, r6
 8002f0e:	ea42 0285 	orr.w	r2, r2, r5, lsl #2
 8002f12:	e00a      	b.n	8002f2a <TIM_OC2_SetConfig+0x62>
 8002f14:	4d09      	ldr	r5, [pc, #36]	@ (8002f3c <TIM_OC2_SetConfig+0x74>)
 8002f16:	42a8      	cmp	r0, r5
 8002f18:	d0f4      	beq.n	8002f04 <TIM_OC2_SetConfig+0x3c>
 8002f1a:	f505 6580 	add.w	r5, r5, #1024	@ 0x400
 8002f1e:	42a8      	cmp	r0, r5
 8002f20:	d0f0      	beq.n	8002f04 <TIM_OC2_SetConfig+0x3c>
 8002f22:	f505 6580 	add.w	r5, r5, #1024	@ 0x400
 8002f26:	42a8      	cmp	r0, r5
 8002f28:	d0ec      	beq.n	8002f04 <TIM_OC2_SetConfig+0x3c>
 8002f2a:	6042      	str	r2, [r0, #4]
 8002f2c:	684a      	ldr	r2, [r1, #4]
 8002f2e:	6184      	str	r4, [r0, #24]
 8002f30:	6382      	str	r2, [r0, #56]	@ 0x38
 8002f32:	6203      	str	r3, [r0, #32]
 8002f34:	bd70      	pop	{r4, r5, r6, pc}
 8002f36:	bf00      	nop
 8002f38:	40012c00 	.word	0x40012c00
 8002f3c:	40014000 	.word	0x40014000

08002f40 <HAL_TIM_PWM_ConfigChannel>:
 8002f40:	b538      	push	{r3, r4, r5, lr}
 8002f42:	f890 303c 	ldrb.w	r3, [r0, #60]	@ 0x3c
 8002f46:	2b01      	cmp	r3, #1
 8002f48:	4604      	mov	r4, r0
 8002f4a:	d073      	beq.n	8003034 <HAL_TIM_PWM_ConfigChannel+0xf4>
 8002f4c:	2001      	movs	r0, #1
 8002f4e:	2a0c      	cmp	r2, #12
 8002f50:	f884 003c 	strb.w	r0, [r4, #60]	@ 0x3c
 8002f54:	d04e      	beq.n	8002ff4 <HAL_TIM_PWM_ConfigChannel+0xb4>
 8002f56:	d808      	bhi.n	8002f6a <HAL_TIM_PWM_ConfigChannel+0x2a>
 8002f58:	2a04      	cmp	r2, #4
 8002f5a:	d02b      	beq.n	8002fb4 <HAL_TIM_PWM_ConfigChannel+0x74>
 8002f5c:	2a08      	cmp	r2, #8
 8002f5e:	d039      	beq.n	8002fd4 <HAL_TIM_PWM_ConfigChannel+0x94>
 8002f60:	b1ba      	cbz	r2, 8002f92 <HAL_TIM_PWM_ConfigChannel+0x52>
 8002f62:	2300      	movs	r3, #0
 8002f64:	f884 303c 	strb.w	r3, [r4, #60]	@ 0x3c
 8002f68:	bd38      	pop	{r3, r4, r5, pc}
 8002f6a:	2a10      	cmp	r2, #16
 8002f6c:	d052      	beq.n	8003014 <HAL_TIM_PWM_ConfigChannel+0xd4>
 8002f6e:	2a14      	cmp	r2, #20
 8002f70:	d1f7      	bne.n	8002f62 <HAL_TIM_PWM_ConfigChannel+0x22>
 8002f72:	6820      	ldr	r0, [r4, #0]
 8002f74:	f7ff feac 	bl	8002cd0 <TIM_OC6_SetConfig>
 8002f78:	6d43      	ldr	r3, [r0, #84]	@ 0x54
 8002f7a:	690a      	ldr	r2, [r1, #16]
 8002f7c:	f443 6300 	orr.w	r3, r3, #2048	@ 0x800
 8002f80:	6543      	str	r3, [r0, #84]	@ 0x54
 8002f82:	6d43      	ldr	r3, [r0, #84]	@ 0x54
 8002f84:	f423 6380 	bic.w	r3, r3, #1024	@ 0x400
 8002f88:	6543      	str	r3, [r0, #84]	@ 0x54
 8002f8a:	6d43      	ldr	r3, [r0, #84]	@ 0x54
 8002f8c:	ea43 2302 	orr.w	r3, r3, r2, lsl #8
 8002f90:	e04e      	b.n	8003030 <HAL_TIM_PWM_ConfigChannel+0xf0>
 8002f92:	6820      	ldr	r0, [r4, #0]
 8002f94:	f7ff fdcc 	bl	8002b30 <TIM_OC1_SetConfig>
 8002f98:	6983      	ldr	r3, [r0, #24]
 8002f9a:	690a      	ldr	r2, [r1, #16]
 8002f9c:	f043 0308 	orr.w	r3, r3, #8
 8002fa0:	6183      	str	r3, [r0, #24]
 8002fa2:	6983      	ldr	r3, [r0, #24]
 8002fa4:	f023 0304 	bic.w	r3, r3, #4
 8002fa8:	6183      	str	r3, [r0, #24]
 8002faa:	6983      	ldr	r3, [r0, #24]
 8002fac:	4313      	orrs	r3, r2
 8002fae:	6183      	str	r3, [r0, #24]
 8002fb0:	2000      	movs	r0, #0
 8002fb2:	e7d6      	b.n	8002f62 <HAL_TIM_PWM_ConfigChannel+0x22>
 8002fb4:	6820      	ldr	r0, [r4, #0]
 8002fb6:	f7ff ff87 	bl	8002ec8 <TIM_OC2_SetConfig>
 8002fba:	6983      	ldr	r3, [r0, #24]
 8002fbc:	690a      	ldr	r2, [r1, #16]
 8002fbe:	f443 6300 	orr.w	r3, r3, #2048	@ 0x800
 8002fc2:	6183      	str	r3, [r0, #24]
 8002fc4:	6983      	ldr	r3, [r0, #24]
 8002fc6:	f423 6380 	bic.w	r3, r3, #1024	@ 0x400
 8002fca:	6183      	str	r3, [r0, #24]
 8002fcc:	6983      	ldr	r3, [r0, #24]
 8002fce:	ea43 2302 	orr.w	r3, r3, r2, lsl #8
 8002fd2:	e7ec      	b.n	8002fae <HAL_TIM_PWM_ConfigChannel+0x6e>
 8002fd4:	6820      	ldr	r0, [r4, #0]
 8002fd6:	f7ff fde1 	bl	8002b9c <TIM_OC3_SetConfig>
 8002fda:	69c3      	ldr	r3, [r0, #28]
 8002fdc:	690a      	ldr	r2, [r1, #16]
 8002fde:	f043 0308 	orr.w	r3, r3, #8
 8002fe2:	61c3      	str	r3, [r0, #28]
 8002fe4:	69c3      	ldr	r3, [r0, #28]
 8002fe6:	f023 0304 	bic.w	r3, r3, #4
 8002fea:	61c3      	str	r3, [r0, #28]
 8002fec:	69c3      	ldr	r3, [r0, #28]
 8002fee:	4313      	orrs	r3, r2
 8002ff0:	61c3      	str	r3, [r0, #28]
 8002ff2:	e7dd      	b.n	8002fb0 <HAL_TIM_PWM_ConfigChannel+0x70>
 8002ff4:	6820      	ldr	r0, [r4, #0]
 8002ff6:	f7ff fe0b 	bl	8002c10 <TIM_OC4_SetConfig>
 8002ffa:	69c3      	ldr	r3, [r0, #28]
 8002ffc:	690a      	ldr	r2, [r1, #16]
 8002ffe:	f443 6300 	orr.w	r3, r3, #2048	@ 0x800
 8003002:	61c3      	str	r3, [r0, #28]
 8003004:	69c3      	ldr	r3, [r0, #28]
 8003006:	f423 6380 	bic.w	r3, r3, #1024	@ 0x400
 800300a:	61c3      	str	r3, [r0, #28]
 800300c:	69c3      	ldr	r3, [r0, #28]
 800300e:	ea43 2302 	orr.w	r3, r3, r2, lsl #8
 8003012:	e7ed      	b.n	8002ff0 <HAL_TIM_PWM_ConfigChannel+0xb0>
 8003014:	6820      	ldr	r0, [r4, #0]
 8003016:	f7ff fe2b 	bl	8002c70 <TIM_OC5_SetConfig>
 800301a:	6d43      	ldr	r3, [r0, #84]	@ 0x54
 800301c:	690a      	ldr	r2, [r1, #16]
 800301e:	f043 0308 	orr.w	r3, r3, #8
 8003022:	6543      	str	r3, [r0, #84]	@ 0x54
 8003024:	6d43      	ldr	r3, [r0, #84]	@ 0x54
 8003026:	f023 0304 	bic.w	r3, r3, #4
 800302a:	6543      	str	r3, [r0, #84]	@ 0x54
 800302c:	6d43      	ldr	r3, [r0, #84]	@ 0x54
 800302e:	4313      	orrs	r3, r2
 8003030:	6543      	str	r3, [r0, #84]	@ 0x54
 8003032:	e7bd      	b.n	8002fb0 <HAL_TIM_PWM_ConfigChannel+0x70>
 8003034:	2002      	movs	r0, #2
 8003036:	e797      	b.n	8002f68 <HAL_TIM_PWM_ConfigChannel+0x28>

08003038 <TIM_ETR_SetConfig>:
 8003038:	b510      	push	{r4, lr}
 800303a:	6884      	ldr	r4, [r0, #8]
 800303c:	430a      	orrs	r2, r1
 800303e:	f424 447f 	bic.w	r4, r4, #65280	@ 0xff00
 8003042:	ea42 2203 	orr.w	r2, r2, r3, lsl #8
 8003046:	4322      	orrs	r2, r4
 8003048:	6082      	str	r2, [r0, #8]
 800304a:	bd10      	pop	{r4, pc}

0800304c <HAL_TIM_ConfigClockSource>:
 800304c:	b538      	push	{r3, r4, r5, lr}
 800304e:	f890 303c 	ldrb.w	r3, [r0, #60]	@ 0x3c
 8003052:	2b01      	cmp	r3, #1
 8003054:	4604      	mov	r4, r0
 8003056:	f04f 0002 	mov.w	r0, #2
 800305a:	f000 808c 	beq.w	8003176 <HAL_TIM_ConfigClockSource+0x12a>
 800305e:	f884 003d 	strb.w	r0, [r4, #61]	@ 0x3d
 8003062:	2201      	movs	r2, #1
 8003064:	6820      	ldr	r0, [r4, #0]
 8003066:	f884 203c 	strb.w	r2, [r4, #60]	@ 0x3c
 800306a:	6885      	ldr	r5, [r0, #8]
 800306c:	4b43      	ldr	r3, [pc, #268]	@ (800317c <HAL_TIM_ConfigClockSource+0x130>)
 800306e:	402b      	ands	r3, r5
 8003070:	6083      	str	r3, [r0, #8]
 8003072:	680b      	ldr	r3, [r1, #0]
 8003074:	2b60      	cmp	r3, #96	@ 0x60
 8003076:	d04f      	beq.n	8003118 <HAL_TIM_ConfigClockSource+0xcc>
 8003078:	d832      	bhi.n	80030e0 <HAL_TIM_ConfigClockSource+0x94>
 800307a:	2b40      	cmp	r3, #64	@ 0x40
 800307c:	d064      	beq.n	8003148 <HAL_TIM_ConfigClockSource+0xfc>
 800307e:	d816      	bhi.n	80030ae <HAL_TIM_ConfigClockSource+0x62>
 8003080:	2b20      	cmp	r3, #32
 8003082:	d00d      	beq.n	80030a0 <HAL_TIM_ConfigClockSource+0x54>
 8003084:	d80a      	bhi.n	800309c <HAL_TIM_ConfigClockSource+0x50>
 8003086:	f033 0110 	bics.w	r1, r3, #16
 800308a:	d009      	beq.n	80030a0 <HAL_TIM_ConfigClockSource+0x54>
 800308c:	2301      	movs	r3, #1
 800308e:	f884 303d 	strb.w	r3, [r4, #61]	@ 0x3d
 8003092:	2300      	movs	r3, #0
 8003094:	f884 303c 	strb.w	r3, [r4, #60]	@ 0x3c
 8003098:	4610      	mov	r0, r2
 800309a:	bd38      	pop	{r3, r4, r5, pc}
 800309c:	2b30      	cmp	r3, #48	@ 0x30
 800309e:	d1f5      	bne.n	800308c <HAL_TIM_ConfigClockSource+0x40>
 80030a0:	6882      	ldr	r2, [r0, #8]
 80030a2:	f022 0270 	bic.w	r2, r2, #112	@ 0x70
 80030a6:	4313      	orrs	r3, r2
 80030a8:	f043 0307 	orr.w	r3, r3, #7
 80030ac:	e028      	b.n	8003100 <HAL_TIM_ConfigClockSource+0xb4>
 80030ae:	2b50      	cmp	r3, #80	@ 0x50
 80030b0:	d1ec      	bne.n	800308c <HAL_TIM_ConfigClockSource+0x40>
 80030b2:	684a      	ldr	r2, [r1, #4]
 80030b4:	68cd      	ldr	r5, [r1, #12]
 80030b6:	6a01      	ldr	r1, [r0, #32]
 80030b8:	6a03      	ldr	r3, [r0, #32]
 80030ba:	f023 0301 	bic.w	r3, r3, #1
 80030be:	6203      	str	r3, [r0, #32]
 80030c0:	6983      	ldr	r3, [r0, #24]
 80030c2:	f021 010a 	bic.w	r1, r1, #10
 80030c6:	f023 03f0 	bic.w	r3, r3, #240	@ 0xf0
 80030ca:	ea43 1305 	orr.w	r3, r3, r5, lsl #4
 80030ce:	430a      	orrs	r2, r1
 80030d0:	6183      	str	r3, [r0, #24]
 80030d2:	6202      	str	r2, [r0, #32]
 80030d4:	6883      	ldr	r3, [r0, #8]
 80030d6:	f023 0370 	bic.w	r3, r3, #112	@ 0x70
 80030da:	f043 0357 	orr.w	r3, r3, #87	@ 0x57
 80030de:	e00f      	b.n	8003100 <HAL_TIM_ConfigClockSource+0xb4>
 80030e0:	f5b3 5f80 	cmp.w	r3, #4096	@ 0x1000
 80030e4:	d00d      	beq.n	8003102 <HAL_TIM_ConfigClockSource+0xb6>
 80030e6:	f5b3 5f00 	cmp.w	r3, #8192	@ 0x2000
 80030ea:	d00c      	beq.n	8003106 <HAL_TIM_ConfigClockSource+0xba>
 80030ec:	2b70      	cmp	r3, #112	@ 0x70
 80030ee:	d1cd      	bne.n	800308c <HAL_TIM_ConfigClockSource+0x40>
 80030f0:	68cb      	ldr	r3, [r1, #12]
 80030f2:	e9d1 2101 	ldrd	r2, r1, [r1, #4]
 80030f6:	f7ff ff9f 	bl	8003038 <TIM_ETR_SetConfig>
 80030fa:	6883      	ldr	r3, [r0, #8]
 80030fc:	f043 0377 	orr.w	r3, r3, #119	@ 0x77
 8003100:	6083      	str	r3, [r0, #8]
 8003102:	2200      	movs	r2, #0
 8003104:	e7c2      	b.n	800308c <HAL_TIM_ConfigClockSource+0x40>
 8003106:	68cb      	ldr	r3, [r1, #12]
 8003108:	e9d1 2101 	ldrd	r2, r1, [r1, #4]
 800310c:	f7ff ff94 	bl	8003038 <TIM_ETR_SetConfig>
 8003110:	6883      	ldr	r3, [r0, #8]
 8003112:	f443 4380 	orr.w	r3, r3, #16384	@ 0x4000
 8003116:	e7f3      	b.n	8003100 <HAL_TIM_ConfigClockSource+0xb4>
 8003118:	6a03      	ldr	r3, [r0, #32]
 800311a:	6a02      	ldr	r2, [r0, #32]
 800311c:	684d      	ldr	r5, [r1, #4]
 800311e:	68c9      	ldr	r1, [r1, #12]
 8003120:	f022 0210 	bic.w	r2, r2, #16
 8003124:	6202      	str	r2, [r0, #32]
 8003126:	6982      	ldr	r2, [r0, #24]
 8003128:	f023 03a0 	bic.w	r3, r3, #160	@ 0xa0
 800312c:	f422 4270 	bic.w	r2, r2, #61440	@ 0xf000
 8003130:	ea43 1305 	orr.w	r3, r3, r5, lsl #4
 8003134:	ea42 3201 	orr.w	r2, r2, r1, lsl #12
 8003138:	6182      	str	r2, [r0, #24]
 800313a:	6203      	str	r3, [r0, #32]
 800313c:	6883      	ldr	r3, [r0, #8]
 800313e:	f023 0370 	bic.w	r3, r3, #112	@ 0x70
 8003142:	f043 0367 	orr.w	r3, r3, #103	@ 0x67
 8003146:	e7db      	b.n	8003100 <HAL_TIM_ConfigClockSource+0xb4>
 8003148:	684a      	ldr	r2, [r1, #4]
 800314a:	68cd      	ldr	r5, [r1, #12]
 800314c:	6a01      	ldr	r1, [r0, #32]
 800314e:	6a03      	ldr	r3, [r0, #32]
 8003150:	f023 0301 	bic.w	r3, r3, #1
 8003154:	6203      	str	r3, [r0, #32]
 8003156:	6983      	ldr	r3, [r0, #24]
 8003158:	f021 010a 	bic.w	r1, r1, #10
 800315c:	f023 03f0 	bic.w	r3, r3, #240	@ 0xf0
 8003160:	ea43 1305 	orr.w	r3, r3, r5, lsl #4
 8003164:	430a      	orrs	r2, r1
 8003166:	6183      	str	r3, [r0, #24]
 8003168:	6202      	str	r2, [r0, #32]
 800316a:	6883      	ldr	r3, [r0, #8]
 800316c:	f023 0370 	bic.w	r3, r3, #112	@ 0x70
 8003170:	f043 0347 	orr.w	r3, r3, #71	@ 0x47
 8003174:	e7c4      	b.n	8003100 <HAL_TIM_ConfigClockSource+0xb4>
 8003176:	4602      	mov	r2, r0
 8003178:	e78e      	b.n	8003098 <HAL_TIM_ConfigClockSource+0x4c>
 800317a:	bf00      	nop
 800317c:	fffe0088 	.word	0xfffe0088

08003180 <HAL_TIMEx_MasterConfigSynchronization>:
 8003180:	b570      	push	{r4, r5, r6, lr}
 8003182:	f890 303c 	ldrb.w	r3, [r0, #60]	@ 0x3c
 8003186:	2b01      	cmp	r3, #1
 8003188:	4604      	mov	r4, r0
 800318a:	f04f 0002 	mov.w	r0, #2
 800318e:	d023      	beq.n	80031d8 <HAL_TIMEx_MasterConfigSynchronization+0x58>
 8003190:	6822      	ldr	r2, [r4, #0]
 8003192:	4d12      	ldr	r5, [pc, #72]	@ (80031dc <HAL_TIMEx_MasterConfigSynchronization+0x5c>)
 8003194:	f884 003d 	strb.w	r0, [r4, #61]	@ 0x3d
 8003198:	6853      	ldr	r3, [r2, #4]
 800319a:	6890      	ldr	r0, [r2, #8]
 800319c:	42aa      	cmp	r2, r5
 800319e:	bf02      	ittt	eq
 80031a0:	684e      	ldreq	r6, [r1, #4]
 80031a2:	f423 0370 	biceq.w	r3, r3, #15728640	@ 0xf00000
 80031a6:	4333      	orreq	r3, r6
 80031a8:	680e      	ldr	r6, [r1, #0]
 80031aa:	f023 0370 	bic.w	r3, r3, #112	@ 0x70
 80031ae:	4333      	orrs	r3, r6
 80031b0:	42aa      	cmp	r2, r5
 80031b2:	6053      	str	r3, [r2, #4]
 80031b4:	d005      	beq.n	80031c2 <HAL_TIMEx_MasterConfigSynchronization+0x42>
 80031b6:	f1b2 4f80 	cmp.w	r2, #1073741824	@ 0x40000000
 80031ba:	d002      	beq.n	80031c2 <HAL_TIMEx_MasterConfigSynchronization+0x42>
 80031bc:	4b08      	ldr	r3, [pc, #32]	@ (80031e0 <HAL_TIMEx_MasterConfigSynchronization+0x60>)
 80031be:	429a      	cmp	r2, r3
 80031c0:	d104      	bne.n	80031cc <HAL_TIMEx_MasterConfigSynchronization+0x4c>
 80031c2:	6889      	ldr	r1, [r1, #8]
 80031c4:	f020 0380 	bic.w	r3, r0, #128	@ 0x80
 80031c8:	430b      	orrs	r3, r1
 80031ca:	6093      	str	r3, [r2, #8]
 80031cc:	2301      	movs	r3, #1
 80031ce:	2000      	movs	r0, #0
 80031d0:	f884 303d 	strb.w	r3, [r4, #61]	@ 0x3d
 80031d4:	f884 003c 	strb.w	r0, [r4, #60]	@ 0x3c
 80031d8:	bd70      	pop	{r4, r5, r6, pc}
 80031da:	bf00      	nop
 80031dc:	40012c00 	.word	0x40012c00
 80031e0:	40014000 	.word	0x40014000

080031e4 <UART_EndRxTransfer>:
 80031e4:	6802      	ldr	r2, [r0, #0]
 80031e6:	e852 3f00 	ldrex	r3, [r2]
 80031ea:	f423 7390 	bic.w	r3, r3, #288	@ 0x120
 80031ee:	e842 3100 	strex	r1, r3, [r2]
 80031f2:	6802      	ldr	r2, [r0, #0]
 80031f4:	2900      	cmp	r1, #0
 80031f6:	d1f5      	bne.n	80031e4 <UART_EndRxTransfer>
 80031f8:	f102 0308 	add.w	r3, r2, #8
 80031fc:	e853 3f00 	ldrex	r3, [r3]
 8003200:	f023 0301 	bic.w	r3, r3, #1
 8003204:	f102 0c08 	add.w	ip, r2, #8
 8003208:	e84c 3100 	strex	r1, r3, [ip]
 800320c:	2900      	cmp	r1, #0
 800320e:	d1f3      	bne.n	80031f8 <UART_EndRxTransfer+0x14>
 8003210:	6e03      	ldr	r3, [r0, #96]	@ 0x60
 8003212:	2b01      	cmp	r3, #1
 8003214:	d107      	bne.n	8003226 <UART_EndRxTransfer+0x42>
 8003216:	e852 3f00 	ldrex	r3, [r2]
 800321a:	f023 0310 	bic.w	r3, r3, #16
 800321e:	e842 3100 	strex	r1, r3, [r2]
 8003222:	2900      	cmp	r1, #0
 8003224:	d1f7      	bne.n	8003216 <UART_EndRxTransfer+0x32>
 8003226:	2320      	movs	r3, #32
 8003228:	f8c0 3080 	str.w	r3, [r0, #128]	@ 0x80
 800322c:	2300      	movs	r3, #0
 800322e:	6603      	str	r3, [r0, #96]	@ 0x60
 8003230:	6683      	str	r3, [r0, #104]	@ 0x68
 8003232:	4770      	bx	lr

08003234 <HAL_UART_Transmit_DMA>:
 8003234:	b5f8      	push	{r3, r4, r5, r6, r7, lr}
 8003236:	4604      	mov	r4, r0
 8003238:	4613      	mov	r3, r2
 800323a:	6fe5      	ldr	r5, [r4, #124]	@ 0x7c
 800323c:	2d20      	cmp	r5, #32
 800323e:	d130      	bne.n	80032a2 <HAL_UART_Transmit_DMA+0x6e>
 8003240:	b1e1      	cbz	r1, 800327c <HAL_UART_Transmit_DMA+0x48>
 8003242:	b1da      	cbz	r2, 800327c <HAL_UART_Transmit_DMA+0x48>
 8003244:	6f20      	ldr	r0, [r4, #112]	@ 0x70
 8003246:	f8a4 2052 	strh.w	r2, [r4, #82]	@ 0x52
 800324a:	f8a4 2050 	strh.w	r2, [r4, #80]	@ 0x50
 800324e:	2600      	movs	r6, #0
 8003250:	2221      	movs	r2, #33	@ 0x21
 8003252:	f8c4 6084 	str.w	r6, [r4, #132]	@ 0x84
 8003256:	64e1      	str	r1, [r4, #76]	@ 0x4c
 8003258:	67e2      	str	r2, [r4, #124]	@ 0x7c
 800325a:	6822      	ldr	r2, [r4, #0]
 800325c:	b180      	cbz	r0, 8003280 <HAL_UART_Transmit_DMA+0x4c>
 800325e:	4f12      	ldr	r7, [pc, #72]	@ (80032a8 <HAL_UART_Transmit_DMA+0x74>)
 8003260:	6287      	str	r7, [r0, #40]	@ 0x28
 8003262:	4f12      	ldr	r7, [pc, #72]	@ (80032ac <HAL_UART_Transmit_DMA+0x78>)
 8003264:	62c7      	str	r7, [r0, #44]	@ 0x2c
 8003266:	4f12      	ldr	r7, [pc, #72]	@ (80032b0 <HAL_UART_Transmit_DMA+0x7c>)
 8003268:	3228      	adds	r2, #40	@ 0x28
 800326a:	e9c0 760c 	strd	r7, r6, [r0, #48]	@ 0x30
 800326e:	f7fe fe9d 	bl	8001fac <HAL_DMA_Start_IT>
 8003272:	b128      	cbz	r0, 8003280 <HAL_UART_Transmit_DMA+0x4c>
 8003274:	2310      	movs	r3, #16
 8003276:	f8c4 3084 	str.w	r3, [r4, #132]	@ 0x84
 800327a:	67e5      	str	r5, [r4, #124]	@ 0x7c
 800327c:	2001      	movs	r0, #1
 800327e:	bdf8      	pop	{r3, r4, r5, r6, r7, pc}
 8003280:	6823      	ldr	r3, [r4, #0]
 8003282:	2240      	movs	r2, #64	@ 0x40
 8003284:	621a      	str	r2, [r3, #32]
 8003286:	6822      	ldr	r2, [r4, #0]
 8003288:	f102 0308 	add.w	r3, r2, #8
 800328c:	e853 3f00 	ldrex	r3, [r3]
 8003290:	f043 0380 	orr.w	r3, r3, #128	@ 0x80
 8003294:	f102 0108 	add.w	r1, r2, #8
 8003298:	e841 3000 	strex	r0, r3, [r1]
 800329c:	2800      	cmp	r0, #0
 800329e:	d1f3      	bne.n	8003288 <HAL_UART_Transmit_DMA+0x54>
 80032a0:	e7ed      	b.n	800327e <HAL_UART_Transmit_DMA+0x4a>
 80032a2:	2002      	movs	r0, #2
 80032a4:	e7eb      	b.n	800327e <HAL_UART_Transmit_DMA+0x4a>
 80032a6:	bf00      	nop
 80032a8:	080032b7 	.word	0x080032b7
 80032ac:	080032fd 	.word	0x080032fd
 80032b0:	08003309 	.word	0x08003309

080032b4 <HAL_UART_TxCpltCallback>:
 80032b4:	4770      	bx	lr

080032b6 <UART_DMATransmitCplt>:
 80032b6:	b508      	push	{r3, lr}
 80032b8:	4603      	mov	r3, r0
 80032ba:	6a40      	ldr	r0, [r0, #36]	@ 0x24
 80032bc:	699b      	ldr	r3, [r3, #24]
 80032be:	2b20      	cmp	r3, #32
 80032c0:	d018      	beq.n	80032f4 <UART_DMATransmitCplt+0x3e>
 80032c2:	2300      	movs	r3, #0
 80032c4:	f8a0 3052 	strh.w	r3, [r0, #82]	@ 0x52
 80032c8:	6802      	ldr	r2, [r0, #0]
 80032ca:	f102 0308 	add.w	r3, r2, #8
 80032ce:	e853 3f00 	ldrex	r3, [r3]
 80032d2:	f023 0380 	bic.w	r3, r3, #128	@ 0x80
 80032d6:	3208      	adds	r2, #8
 80032d8:	e842 3100 	strex	r1, r3, [r2]
 80032dc:	6802      	ldr	r2, [r0, #0]
 80032de:	2900      	cmp	r1, #0
 80032e0:	d1f2      	bne.n	80032c8 <UART_DMATransmitCplt+0x12>
 80032e2:	e852 3f00 	ldrex	r3, [r2]
 80032e6:	f043 0340 	orr.w	r3, r3, #64	@ 0x40
 80032ea:	e842 3100 	strex	r1, r3, [r2]
 80032ee:	2900      	cmp	r1, #0
 80032f0:	d1f7      	bne.n	80032e2 <UART_DMATransmitCplt+0x2c>
 80032f2:	bd08      	pop	{r3, pc}
 80032f4:	f7ff ffde 	bl	80032b4 <HAL_UART_TxCpltCallback>
 80032f8:	e7fb      	b.n	80032f2 <UART_DMATransmitCplt+0x3c>

080032fa <HAL_UART_TxHalfCpltCallback>:
 80032fa:	4770      	bx	lr

080032fc <UART_DMATxHalfCplt>:
 80032fc:	b508      	push	{r3, lr}
 80032fe:	6a40      	ldr	r0, [r0, #36]	@ 0x24
 8003300:	f7ff fffb 	bl	80032fa <HAL_UART_TxHalfCpltCallback>
 8003304:	bd08      	pop	{r3, pc}

08003306 <HAL_UART_ErrorCallback>:
 8003306:	4770      	bx	lr

08003308 <UART_DMAError>:
 8003308:	6a40      	ldr	r0, [r0, #36]	@ 0x24
 800330a:	6803      	ldr	r3, [r0, #0]
 800330c:	6fc2      	ldr	r2, [r0, #124]	@ 0x7c
 800330e:	f8d0 1080 	ldr.w	r1, [r0, #128]	@ 0x80
 8003312:	b510      	push	{r4, lr}
 8003314:	689c      	ldr	r4, [r3, #8]
 8003316:	0624      	lsls	r4, r4, #24
 8003318:	d50e      	bpl.n	8003338 <UART_DMAError+0x30>
 800331a:	2a21      	cmp	r2, #33	@ 0x21
 800331c:	d10c      	bne.n	8003338 <UART_DMAError+0x30>
 800331e:	2200      	movs	r2, #0
 8003320:	f8a0 2052 	strh.w	r2, [r0, #82]	@ 0x52
 8003324:	e853 2f00 	ldrex	r2, [r3]
 8003328:	f022 02c0 	bic.w	r2, r2, #192	@ 0xc0
 800332c:	e843 2400 	strex	r4, r2, [r3]
 8003330:	2c00      	cmp	r4, #0
 8003332:	d1f7      	bne.n	8003324 <UART_DMAError+0x1c>
 8003334:	2220      	movs	r2, #32
 8003336:	67c2      	str	r2, [r0, #124]	@ 0x7c
 8003338:	689b      	ldr	r3, [r3, #8]
 800333a:	065b      	lsls	r3, r3, #25
 800333c:	d506      	bpl.n	800334c <UART_DMAError+0x44>
 800333e:	2922      	cmp	r1, #34	@ 0x22
 8003340:	d104      	bne.n	800334c <UART_DMAError+0x44>
 8003342:	2300      	movs	r3, #0
 8003344:	f8a0 305a 	strh.w	r3, [r0, #90]	@ 0x5a
 8003348:	f7ff ff4c 	bl	80031e4 <UART_EndRxTransfer>
 800334c:	f8d0 3084 	ldr.w	r3, [r0, #132]	@ 0x84
 8003350:	f043 0310 	orr.w	r3, r3, #16
 8003354:	f8c0 3084 	str.w	r3, [r0, #132]	@ 0x84
 8003358:	f7ff ffd5 	bl	8003306 <HAL_UART_ErrorCallback>
 800335c:	bd10      	pop	{r4, pc}

0800335e <UART_DMAAbortOnError>:
 800335e:	b508      	push	{r3, lr}
 8003360:	6a40      	ldr	r0, [r0, #36]	@ 0x24
 8003362:	2300      	movs	r3, #0
 8003364:	f8a0 305a 	strh.w	r3, [r0, #90]	@ 0x5a
 8003368:	f8a0 3052 	strh.w	r3, [r0, #82]	@ 0x52
 800336c:	f7ff ffcb 	bl	8003306 <HAL_UART_ErrorCallback>
 8003370:	bd08      	pop	{r3, pc}

08003372 <HAL_UARTEx_RxEventCallback>:
 8003372:	4770      	bx	lr

08003374 <HAL_UART_IRQHandler>:
 8003374:	6803      	ldr	r3, [r0, #0]
 8003376:	69da      	ldr	r2, [r3, #28]
 8003378:	6819      	ldr	r1, [r3, #0]
 800337a:	b570      	push	{r4, r5, r6, lr}
 800337c:	f640 060f 	movw	r6, #2063	@ 0x80f
 8003380:	4232      	tst	r2, r6
 8003382:	689d      	ldr	r5, [r3, #8]
 8003384:	4604      	mov	r4, r0
 8003386:	d10b      	bne.n	80033a0 <HAL_UART_IRQHandler+0x2c>
 8003388:	0696      	lsls	r6, r2, #26
 800338a:	f140 8088 	bpl.w	800349e <HAL_UART_IRQHandler+0x12a>
 800338e:	068e      	lsls	r6, r1, #26
 8003390:	f140 8085 	bpl.w	800349e <HAL_UART_IRQHandler+0x12a>
 8003394:	6e83      	ldr	r3, [r0, #104]	@ 0x68
 8003396:	2b00      	cmp	r3, #0
 8003398:	d07b      	beq.n	8003492 <HAL_UART_IRQHandler+0x11e>
 800339a:	e8bd 4070 	ldmia.w	sp!, {r4, r5, r6, lr}
 800339e:	4718      	bx	r3
 80033a0:	4e9a      	ldr	r6, [pc, #616]	@ (800360c <HAL_UART_IRQHandler+0x298>)
 80033a2:	f005 0001 	and.w	r0, r5, #1
 80033a6:	400e      	ands	r6, r1
 80033a8:	4306      	orrs	r6, r0
 80033aa:	d078      	beq.n	800349e <HAL_UART_IRQHandler+0x12a>
 80033ac:	07d5      	lsls	r5, r2, #31
 80033ae:	d509      	bpl.n	80033c4 <HAL_UART_IRQHandler+0x50>
 80033b0:	05ce      	lsls	r6, r1, #23
 80033b2:	d507      	bpl.n	80033c4 <HAL_UART_IRQHandler+0x50>
 80033b4:	2501      	movs	r5, #1
 80033b6:	621d      	str	r5, [r3, #32]
 80033b8:	f8d4 5084 	ldr.w	r5, [r4, #132]	@ 0x84
 80033bc:	f045 0501 	orr.w	r5, r5, #1
 80033c0:	f8c4 5084 	str.w	r5, [r4, #132]	@ 0x84
 80033c4:	0795      	lsls	r5, r2, #30
 80033c6:	d508      	bpl.n	80033da <HAL_UART_IRQHandler+0x66>
 80033c8:	b138      	cbz	r0, 80033da <HAL_UART_IRQHandler+0x66>
 80033ca:	2502      	movs	r5, #2
 80033cc:	621d      	str	r5, [r3, #32]
 80033ce:	f8d4 5084 	ldr.w	r5, [r4, #132]	@ 0x84
 80033d2:	f045 0504 	orr.w	r5, r5, #4
 80033d6:	f8c4 5084 	str.w	r5, [r4, #132]	@ 0x84
 80033da:	0756      	lsls	r6, r2, #29
 80033dc:	d508      	bpl.n	80033f0 <HAL_UART_IRQHandler+0x7c>
 80033de:	b138      	cbz	r0, 80033f0 <HAL_UART_IRQHandler+0x7c>
 80033e0:	2504      	movs	r5, #4
 80033e2:	621d      	str	r5, [r3, #32]
 80033e4:	f8d4 5084 	ldr.w	r5, [r4, #132]	@ 0x84
 80033e8:	f045 0502 	orr.w	r5, r5, #2
 80033ec:	f8c4 5084 	str.w	r5, [r4, #132]	@ 0x84
 80033f0:	0715      	lsls	r5, r2, #28
 80033f2:	d50b      	bpl.n	800340c <HAL_UART_IRQHandler+0x98>
 80033f4:	f001 0520 	and.w	r5, r1, #32
 80033f8:	4305      	orrs	r5, r0
 80033fa:	d007      	beq.n	800340c <HAL_UART_IRQHandler+0x98>
 80033fc:	2008      	movs	r0, #8
 80033fe:	6218      	str	r0, [r3, #32]
 8003400:	f8d4 0084 	ldr.w	r0, [r4, #132]	@ 0x84
 8003404:	f040 0008 	orr.w	r0, r0, #8
 8003408:	f8c4 0084 	str.w	r0, [r4, #132]	@ 0x84
 800340c:	0516      	lsls	r6, r2, #20
 800340e:	d50a      	bpl.n	8003426 <HAL_UART_IRQHandler+0xb2>
 8003410:	014d      	lsls	r5, r1, #5
 8003412:	d508      	bpl.n	8003426 <HAL_UART_IRQHandler+0xb2>
 8003414:	f44f 6000 	mov.w	r0, #2048	@ 0x800
 8003418:	6218      	str	r0, [r3, #32]
 800341a:	f8d4 3084 	ldr.w	r3, [r4, #132]	@ 0x84
 800341e:	f043 0320 	orr.w	r3, r3, #32
 8003422:	f8c4 3084 	str.w	r3, [r4, #132]	@ 0x84
 8003426:	f8d4 3084 	ldr.w	r3, [r4, #132]	@ 0x84
 800342a:	2b00      	cmp	r3, #0
 800342c:	d031      	beq.n	8003492 <HAL_UART_IRQHandler+0x11e>
 800342e:	0690      	lsls	r0, r2, #26
 8003430:	d505      	bpl.n	800343e <HAL_UART_IRQHandler+0xca>
 8003432:	068a      	lsls	r2, r1, #26
 8003434:	d503      	bpl.n	800343e <HAL_UART_IRQHandler+0xca>
 8003436:	6ea3      	ldr	r3, [r4, #104]	@ 0x68
 8003438:	b10b      	cbz	r3, 800343e <HAL_UART_IRQHandler+0xca>
 800343a:	4620      	mov	r0, r4
 800343c:	4798      	blx	r3
 800343e:	6826      	ldr	r6, [r4, #0]
 8003440:	f8d4 2084 	ldr.w	r2, [r4, #132]	@ 0x84
 8003444:	68b3      	ldr	r3, [r6, #8]
 8003446:	f002 0228 	and.w	r2, r2, #40	@ 0x28
 800344a:	f003 0340 	and.w	r3, r3, #64	@ 0x40
 800344e:	ea53 0502 	orrs.w	r5, r3, r2
 8003452:	4620      	mov	r0, r4
 8003454:	d01e      	beq.n	8003494 <HAL_UART_IRQHandler+0x120>
 8003456:	f7ff fec5 	bl	80031e4 <UART_EndRxTransfer>
 800345a:	68b3      	ldr	r3, [r6, #8]
 800345c:	065b      	lsls	r3, r3, #25
 800345e:	d515      	bpl.n	800348c <HAL_UART_IRQHandler+0x118>
 8003460:	6822      	ldr	r2, [r4, #0]
 8003462:	f102 0308 	add.w	r3, r2, #8
 8003466:	e853 3f00 	ldrex	r3, [r3]
 800346a:	f023 0340 	bic.w	r3, r3, #64	@ 0x40
 800346e:	3208      	adds	r2, #8
 8003470:	e842 3100 	strex	r1, r3, [r2]
 8003474:	2900      	cmp	r1, #0
 8003476:	d1f3      	bne.n	8003460 <HAL_UART_IRQHandler+0xec>
 8003478:	6f60      	ldr	r0, [r4, #116]	@ 0x74
 800347a:	b138      	cbz	r0, 800348c <HAL_UART_IRQHandler+0x118>
 800347c:	4b64      	ldr	r3, [pc, #400]	@ (8003610 <HAL_UART_IRQHandler+0x29c>)
 800347e:	6343      	str	r3, [r0, #52]	@ 0x34
 8003480:	f7fe fdee 	bl	8002060 <HAL_DMA_Abort_IT>
 8003484:	b128      	cbz	r0, 8003492 <HAL_UART_IRQHandler+0x11e>
 8003486:	6f60      	ldr	r0, [r4, #116]	@ 0x74
 8003488:	6b43      	ldr	r3, [r0, #52]	@ 0x34
 800348a:	e786      	b.n	800339a <HAL_UART_IRQHandler+0x26>
 800348c:	4620      	mov	r0, r4
 800348e:	f7ff ff3a 	bl	8003306 <HAL_UART_ErrorCallback>
 8003492:	bd70      	pop	{r4, r5, r6, pc}
 8003494:	f7ff ff37 	bl	8003306 <HAL_UART_ErrorCallback>
 8003498:	f8c4 5084 	str.w	r5, [r4, #132]	@ 0x84
 800349c:	e7f9      	b.n	8003492 <HAL_UART_IRQHandler+0x11e>
 800349e:	6e20      	ldr	r0, [r4, #96]	@ 0x60
 80034a0:	2801      	cmp	r0, #1
 80034a2:	f040 8087 	bne.w	80035b4 <HAL_UART_IRQHandler+0x240>
 80034a6:	06d6      	lsls	r6, r2, #27
 80034a8:	f140 8084 	bpl.w	80035b4 <HAL_UART_IRQHandler+0x240>
 80034ac:	06c8      	lsls	r0, r1, #27
 80034ae:	f140 8081 	bpl.w	80035b4 <HAL_UART_IRQHandler+0x240>
 80034b2:	2210      	movs	r2, #16
 80034b4:	621a      	str	r2, [r3, #32]
 80034b6:	689a      	ldr	r2, [r3, #8]
 80034b8:	0652      	lsls	r2, r2, #25
 80034ba:	d549      	bpl.n	8003550 <HAL_UART_IRQHandler+0x1dc>
 80034bc:	6f61      	ldr	r1, [r4, #116]	@ 0x74
 80034be:	680a      	ldr	r2, [r1, #0]
 80034c0:	6852      	ldr	r2, [r2, #4]
 80034c2:	b292      	uxth	r2, r2
 80034c4:	2a00      	cmp	r2, #0
 80034c6:	d0e4      	beq.n	8003492 <HAL_UART_IRQHandler+0x11e>
 80034c8:	f8b4 0058 	ldrh.w	r0, [r4, #88]	@ 0x58
 80034cc:	4290      	cmp	r0, r2
 80034ce:	d9e0      	bls.n	8003492 <HAL_UART_IRQHandler+0x11e>
 80034d0:	f8a4 205a 	strh.w	r2, [r4, #90]	@ 0x5a
 80034d4:	698a      	ldr	r2, [r1, #24]
 80034d6:	2a20      	cmp	r2, #32
 80034d8:	d02e      	beq.n	8003538 <HAL_UART_IRQHandler+0x1c4>
 80034da:	e853 2f00 	ldrex	r2, [r3]
 80034de:	f422 7280 	bic.w	r2, r2, #256	@ 0x100
 80034e2:	e843 2100 	strex	r1, r2, [r3]
 80034e6:	2900      	cmp	r1, #0
 80034e8:	d1f7      	bne.n	80034da <HAL_UART_IRQHandler+0x166>
 80034ea:	f103 0208 	add.w	r2, r3, #8
 80034ee:	e852 2f00 	ldrex	r2, [r2]
 80034f2:	f022 0201 	bic.w	r2, r2, #1
 80034f6:	f103 0008 	add.w	r0, r3, #8
 80034fa:	e840 2100 	strex	r1, r2, [r0]
 80034fe:	2900      	cmp	r1, #0
 8003500:	d1f3      	bne.n	80034ea <HAL_UART_IRQHandler+0x176>
 8003502:	f103 0208 	add.w	r2, r3, #8
 8003506:	e852 2f00 	ldrex	r2, [r2]
 800350a:	f022 0240 	bic.w	r2, r2, #64	@ 0x40
 800350e:	f103 0008 	add.w	r0, r3, #8
 8003512:	e840 2100 	strex	r1, r2, [r0]
 8003516:	2900      	cmp	r1, #0
 8003518:	d1f3      	bne.n	8003502 <HAL_UART_IRQHandler+0x18e>
 800351a:	2220      	movs	r2, #32
 800351c:	f8c4 2080 	str.w	r2, [r4, #128]	@ 0x80
 8003520:	6621      	str	r1, [r4, #96]	@ 0x60
 8003522:	e853 2f00 	ldrex	r2, [r3]
 8003526:	f022 0210 	bic.w	r2, r2, #16
 800352a:	e843 2100 	strex	r1, r2, [r3]
 800352e:	2900      	cmp	r1, #0
 8003530:	d1f7      	bne.n	8003522 <HAL_UART_IRQHandler+0x1ae>
 8003532:	6f60      	ldr	r0, [r4, #116]	@ 0x74
 8003534:	f7fe fd75 	bl	8002022 <HAL_DMA_Abort>
 8003538:	2302      	movs	r3, #2
 800353a:	6663      	str	r3, [r4, #100]	@ 0x64
 800353c:	f8b4 305a 	ldrh.w	r3, [r4, #90]	@ 0x5a
 8003540:	f8b4 1058 	ldrh.w	r1, [r4, #88]	@ 0x58
 8003544:	1ac9      	subs	r1, r1, r3
 8003546:	b289      	uxth	r1, r1
 8003548:	4620      	mov	r0, r4
 800354a:	f7ff ff12 	bl	8003372 <HAL_UARTEx_RxEventCallback>
 800354e:	e7a0      	b.n	8003492 <HAL_UART_IRQHandler+0x11e>
 8003550:	f8b4 205a 	ldrh.w	r2, [r4, #90]	@ 0x5a
 8003554:	f8b4 005a 	ldrh.w	r0, [r4, #90]	@ 0x5a
 8003558:	f8b4 1058 	ldrh.w	r1, [r4, #88]	@ 0x58
 800355c:	b280      	uxth	r0, r0
 800355e:	b292      	uxth	r2, r2
 8003560:	2800      	cmp	r0, #0
 8003562:	d096      	beq.n	8003492 <HAL_UART_IRQHandler+0x11e>
 8003564:	1a89      	subs	r1, r1, r2
 8003566:	b289      	uxth	r1, r1
 8003568:	2900      	cmp	r1, #0
 800356a:	d092      	beq.n	8003492 <HAL_UART_IRQHandler+0x11e>
 800356c:	e853 2f00 	ldrex	r2, [r3]
 8003570:	f422 7290 	bic.w	r2, r2, #288	@ 0x120
 8003574:	e843 2000 	strex	r0, r2, [r3]
 8003578:	2800      	cmp	r0, #0
 800357a:	d1f7      	bne.n	800356c <HAL_UART_IRQHandler+0x1f8>
 800357c:	f103 0208 	add.w	r2, r3, #8
 8003580:	e852 2f00 	ldrex	r2, [r2]
 8003584:	f022 0201 	bic.w	r2, r2, #1
 8003588:	f103 0508 	add.w	r5, r3, #8
 800358c:	e845 2000 	strex	r0, r2, [r5]
 8003590:	2800      	cmp	r0, #0
 8003592:	d1f3      	bne.n	800357c <HAL_UART_IRQHandler+0x208>
 8003594:	2220      	movs	r2, #32
 8003596:	f8c4 2080 	str.w	r2, [r4, #128]	@ 0x80
 800359a:	66a0      	str	r0, [r4, #104]	@ 0x68
 800359c:	6620      	str	r0, [r4, #96]	@ 0x60
 800359e:	e853 2f00 	ldrex	r2, [r3]
 80035a2:	f022 0210 	bic.w	r2, r2, #16
 80035a6:	e843 2000 	strex	r0, r2, [r3]
 80035aa:	2800      	cmp	r0, #0
 80035ac:	d1f7      	bne.n	800359e <HAL_UART_IRQHandler+0x22a>
 80035ae:	2302      	movs	r3, #2
 80035b0:	6663      	str	r3, [r4, #100]	@ 0x64
 80035b2:	e7c9      	b.n	8003548 <HAL_UART_IRQHandler+0x1d4>
 80035b4:	02d6      	lsls	r6, r2, #11
 80035b6:	d509      	bpl.n	80035cc <HAL_UART_IRQHandler+0x258>
 80035b8:	0268      	lsls	r0, r5, #9
 80035ba:	d507      	bpl.n	80035cc <HAL_UART_IRQHandler+0x258>
 80035bc:	f44f 1280 	mov.w	r2, #1048576	@ 0x100000
 80035c0:	4620      	mov	r0, r4
 80035c2:	621a      	str	r2, [r3, #32]
 80035c4:	e8bd 4070 	ldmia.w	sp!, {r4, r5, r6, lr}
 80035c8:	f000 b9e1 	b.w	800398e <HAL_UARTEx_WakeupCallback>
 80035cc:	0616      	lsls	r6, r2, #24
 80035ce:	d507      	bpl.n	80035e0 <HAL_UART_IRQHandler+0x26c>
 80035d0:	060d      	lsls	r5, r1, #24
 80035d2:	d505      	bpl.n	80035e0 <HAL_UART_IRQHandler+0x26c>
 80035d4:	6ee3      	ldr	r3, [r4, #108]	@ 0x6c
 80035d6:	2b00      	cmp	r3, #0
 80035d8:	f43f af5b 	beq.w	8003492 <HAL_UART_IRQHandler+0x11e>
 80035dc:	4620      	mov	r0, r4
 80035de:	e6dc      	b.n	800339a <HAL_UART_IRQHandler+0x26>
 80035e0:	0650      	lsls	r0, r2, #25
 80035e2:	f57f af56 	bpl.w	8003492 <HAL_UART_IRQHandler+0x11e>
 80035e6:	064a      	lsls	r2, r1, #25
 80035e8:	f57f af53 	bpl.w	8003492 <HAL_UART_IRQHandler+0x11e>
 80035ec:	e853 2f00 	ldrex	r2, [r3]
 80035f0:	f022 0240 	bic.w	r2, r2, #64	@ 0x40
 80035f4:	e843 2100 	strex	r1, r2, [r3]
 80035f8:	2900      	cmp	r1, #0
 80035fa:	d1f7      	bne.n	80035ec <HAL_UART_IRQHandler+0x278>
 80035fc:	2320      	movs	r3, #32
 80035fe:	67e3      	str	r3, [r4, #124]	@ 0x7c
 8003600:	66e1      	str	r1, [r4, #108]	@ 0x6c
 8003602:	4620      	mov	r0, r4
 8003604:	f7ff fe56 	bl	80032b4 <HAL_UART_TxCpltCallback>
 8003608:	e743      	b.n	8003492 <HAL_UART_IRQHandler+0x11e>
 800360a:	bf00      	nop
 800360c:	04000120 	.word	0x04000120
 8003610:	0800335f 	.word	0x0800335f

08003614 <UART_SetConfig>:
 8003614:	b538      	push	{r3, r4, r5, lr}
 8003616:	4604      	mov	r4, r0
 8003618:	69c0      	ldr	r0, [r0, #28]
 800361a:	6921      	ldr	r1, [r4, #16]
 800361c:	68a2      	ldr	r2, [r4, #8]
 800361e:	6823      	ldr	r3, [r4, #0]
 8003620:	430a      	orrs	r2, r1
 8003622:	6961      	ldr	r1, [r4, #20]
 8003624:	681d      	ldr	r5, [r3, #0]
 8003626:	430a      	orrs	r2, r1
 8003628:	4941      	ldr	r1, [pc, #260]	@ (8003730 <UART_SetConfig+0x11c>)
 800362a:	4302      	orrs	r2, r0
 800362c:	4029      	ands	r1, r5
 800362e:	430a      	orrs	r2, r1
 8003630:	601a      	str	r2, [r3, #0]
 8003632:	685a      	ldr	r2, [r3, #4]
 8003634:	68e1      	ldr	r1, [r4, #12]
 8003636:	6a25      	ldr	r5, [r4, #32]
 8003638:	f422 5240 	bic.w	r2, r2, #12288	@ 0x3000
 800363c:	430a      	orrs	r2, r1
 800363e:	605a      	str	r2, [r3, #4]
 8003640:	6899      	ldr	r1, [r3, #8]
 8003642:	69a2      	ldr	r2, [r4, #24]
 8003644:	f421 6130 	bic.w	r1, r1, #2816	@ 0xb00
 8003648:	432a      	orrs	r2, r5
 800364a:	430a      	orrs	r2, r1
 800364c:	609a      	str	r2, [r3, #8]
 800364e:	4a39      	ldr	r2, [pc, #228]	@ (8003734 <UART_SetConfig+0x120>)
 8003650:	4293      	cmp	r3, r2
 8003652:	d114      	bne.n	800367e <UART_SetConfig+0x6a>
 8003654:	4b38      	ldr	r3, [pc, #224]	@ (8003738 <UART_SetConfig+0x124>)
 8003656:	6b1b      	ldr	r3, [r3, #48]	@ 0x30
 8003658:	f003 0303 	and.w	r3, r3, #3
 800365c:	3b01      	subs	r3, #1
 800365e:	2b02      	cmp	r3, #2
 8003660:	d85a      	bhi.n	8003718 <UART_SetConfig+0x104>
 8003662:	4a36      	ldr	r2, [pc, #216]	@ (800373c <UART_SetConfig+0x128>)
 8003664:	5cd3      	ldrb	r3, [r2, r3]
 8003666:	f5b0 4f00 	cmp.w	r0, #32768	@ 0x8000
 800366a:	d12e      	bne.n	80036ca <UART_SetConfig+0xb6>
 800366c:	2b08      	cmp	r3, #8
 800366e:	d851      	bhi.n	8003714 <UART_SetConfig+0x100>
 8003670:	e8df f003 	tbb	[pc, r3]
 8003674:	50150f55 	.word	0x50150f55
 8003678:	50505012 	.word	0x50505012
 800367c:	16          	.byte	0x16
 800367d:	00          	.byte	0x00
 800367e:	4a30      	ldr	r2, [pc, #192]	@ (8003740 <UART_SetConfig+0x12c>)
 8003680:	4293      	cmp	r3, r2
 8003682:	d049      	beq.n	8003718 <UART_SetConfig+0x104>
 8003684:	f502 6280 	add.w	r2, r2, #1024	@ 0x400
 8003688:	1a9b      	subs	r3, r3, r2
 800368a:	bf18      	it	ne
 800368c:	2301      	movne	r3, #1
 800368e:	011b      	lsls	r3, r3, #4
 8003690:	e7e9      	b.n	8003666 <UART_SetConfig+0x52>
 8003692:	f7ff f957 	bl	8002944 <HAL_RCC_GetPCLK2Freq>
 8003696:	e044      	b.n	8003722 <UART_SetConfig+0x10e>
 8003698:	f7ff f870 	bl	800277c <HAL_RCC_GetSysClockFreq>
 800369c:	e041      	b.n	8003722 <UART_SetConfig+0x10e>
 800369e:	4829      	ldr	r0, [pc, #164]	@ (8003744 <UART_SetConfig+0x130>)
 80036a0:	6862      	ldr	r2, [r4, #4]
 80036a2:	0853      	lsrs	r3, r2, #1
 80036a4:	eb03 0340 	add.w	r3, r3, r0, lsl #1
 80036a8:	fbb3 f3f2 	udiv	r3, r3, r2
 80036ac:	f64f 72ef 	movw	r2, #65519	@ 0xffef
 80036b0:	f1a3 0110 	sub.w	r1, r3, #16
 80036b4:	4291      	cmp	r1, r2
 80036b6:	d82d      	bhi.n	8003714 <UART_SetConfig+0x100>
 80036b8:	f023 020f 	bic.w	r2, r3, #15
 80036bc:	6821      	ldr	r1, [r4, #0]
 80036be:	b292      	uxth	r2, r2
 80036c0:	f3c3 0342 	ubfx	r3, r3, #1, #3
 80036c4:	4313      	orrs	r3, r2
 80036c6:	60cb      	str	r3, [r1, #12]
 80036c8:	e02d      	b.n	8003726 <UART_SetConfig+0x112>
 80036ca:	2b08      	cmp	r3, #8
 80036cc:	d822      	bhi.n	8003714 <UART_SetConfig+0x100>
 80036ce:	e8df f003 	tbb	[pc, r3]
 80036d2:	1814      	.short	0x1814
 80036d4:	211b2105 	.word	0x211b2105
 80036d8:	2121      	.short	0x2121
 80036da:	1e          	.byte	0x1e
 80036db:	00          	.byte	0x00
 80036dc:	4819      	ldr	r0, [pc, #100]	@ (8003744 <UART_SetConfig+0x130>)
 80036de:	6862      	ldr	r2, [r4, #4]
 80036e0:	eb00 0352 	add.w	r3, r0, r2, lsr #1
 80036e4:	fbb3 f3f2 	udiv	r3, r3, r2
 80036e8:	f64f 72ef 	movw	r2, #65519	@ 0xffef
 80036ec:	f1a3 0110 	sub.w	r1, r3, #16
 80036f0:	4291      	cmp	r1, r2
 80036f2:	d80f      	bhi.n	8003714 <UART_SetConfig+0x100>
 80036f4:	6822      	ldr	r2, [r4, #0]
 80036f6:	60d3      	str	r3, [r2, #12]
 80036f8:	e015      	b.n	8003726 <UART_SetConfig+0x112>
 80036fa:	f7ff f90b 	bl	8002914 <HAL_RCC_GetPCLK1Freq>
 80036fe:	b190      	cbz	r0, 8003726 <UART_SetConfig+0x112>
 8003700:	e7ed      	b.n	80036de <UART_SetConfig+0xca>
 8003702:	f7ff f91f 	bl	8002944 <HAL_RCC_GetPCLK2Freq>
 8003706:	e7fa      	b.n	80036fe <UART_SetConfig+0xea>
 8003708:	f7ff f838 	bl	800277c <HAL_RCC_GetSysClockFreq>
 800370c:	e7f7      	b.n	80036fe <UART_SetConfig+0xea>
 800370e:	f44f 4000 	mov.w	r0, #32768	@ 0x8000
 8003712:	e7e4      	b.n	80036de <UART_SetConfig+0xca>
 8003714:	2001      	movs	r0, #1
 8003716:	e007      	b.n	8003728 <UART_SetConfig+0x114>
 8003718:	f5b0 4f00 	cmp.w	r0, #32768	@ 0x8000
 800371c:	d1ed      	bne.n	80036fa <UART_SetConfig+0xe6>
 800371e:	f7ff f8f9 	bl	8002914 <HAL_RCC_GetPCLK1Freq>
 8003722:	2800      	cmp	r0, #0
 8003724:	d1bc      	bne.n	80036a0 <UART_SetConfig+0x8c>
 8003726:	2000      	movs	r0, #0
 8003728:	2300      	movs	r3, #0
 800372a:	e9c4 331a 	strd	r3, r3, [r4, #104]	@ 0x68
 800372e:	bd38      	pop	{r3, r4, r5, pc}
 8003730:	efff69f3 	.word	0xefff69f3
 8003734:	40013800 	.word	0x40013800
 8003738:	40021000 	.word	0x40021000
 800373c:	080045ce 	.word	0x080045ce
 8003740:	40004400 	.word	0x40004400
 8003744:	007a1200 	.word	0x007a1200

08003748 <UART_AdvFeatureConfig>:
 8003748:	6a43      	ldr	r3, [r0, #36]	@ 0x24
 800374a:	071a      	lsls	r2, r3, #28
 800374c:	b510      	push	{r4, lr}
 800374e:	d506      	bpl.n	800375e <UART_AdvFeatureConfig+0x16>
 8003750:	6801      	ldr	r1, [r0, #0]
 8003752:	6b44      	ldr	r4, [r0, #52]	@ 0x34
 8003754:	684a      	ldr	r2, [r1, #4]
 8003756:	f422 4200 	bic.w	r2, r2, #32768	@ 0x8000
 800375a:	4322      	orrs	r2, r4
 800375c:	604a      	str	r2, [r1, #4]
 800375e:	07dc      	lsls	r4, r3, #31
 8003760:	d506      	bpl.n	8003770 <UART_AdvFeatureConfig+0x28>
 8003762:	6801      	ldr	r1, [r0, #0]
 8003764:	6a84      	ldr	r4, [r0, #40]	@ 0x28
 8003766:	684a      	ldr	r2, [r1, #4]
 8003768:	f422 3200 	bic.w	r2, r2, #131072	@ 0x20000
 800376c:	4322      	orrs	r2, r4
 800376e:	604a      	str	r2, [r1, #4]
 8003770:	0799      	lsls	r1, r3, #30
 8003772:	d506      	bpl.n	8003782 <UART_AdvFeatureConfig+0x3a>
 8003774:	6801      	ldr	r1, [r0, #0]
 8003776:	6ac4      	ldr	r4, [r0, #44]	@ 0x2c
 8003778:	684a      	ldr	r2, [r1, #4]
 800377a:	f422 3280 	bic.w	r2, r2, #65536	@ 0x10000
 800377e:	4322      	orrs	r2, r4
 8003780:	604a      	str	r2, [r1, #4]
 8003782:	075a      	lsls	r2, r3, #29
 8003784:	d506      	bpl.n	8003794 <UART_AdvFeatureConfig+0x4c>
 8003786:	6801      	ldr	r1, [r0, #0]
 8003788:	6b04      	ldr	r4, [r0, #48]	@ 0x30
 800378a:	684a      	ldr	r2, [r1, #4]
 800378c:	f422 2280 	bic.w	r2, r2, #262144	@ 0x40000
 8003790:	4322      	orrs	r2, r4
 8003792:	604a      	str	r2, [r1, #4]
 8003794:	06dc      	lsls	r4, r3, #27
 8003796:	d506      	bpl.n	80037a6 <UART_AdvFeatureConfig+0x5e>
 8003798:	6801      	ldr	r1, [r0, #0]
 800379a:	6b84      	ldr	r4, [r0, #56]	@ 0x38
 800379c:	688a      	ldr	r2, [r1, #8]
 800379e:	f422 5280 	bic.w	r2, r2, #4096	@ 0x1000
 80037a2:	4322      	orrs	r2, r4
 80037a4:	608a      	str	r2, [r1, #8]
 80037a6:	0699      	lsls	r1, r3, #26
 80037a8:	d506      	bpl.n	80037b8 <UART_AdvFeatureConfig+0x70>
 80037aa:	6801      	ldr	r1, [r0, #0]
 80037ac:	6bc4      	ldr	r4, [r0, #60]	@ 0x3c
 80037ae:	688a      	ldr	r2, [r1, #8]
 80037b0:	f422 5200 	bic.w	r2, r2, #8192	@ 0x2000
 80037b4:	4322      	orrs	r2, r4
 80037b6:	608a      	str	r2, [r1, #8]
 80037b8:	065a      	lsls	r2, r3, #25
 80037ba:	d50f      	bpl.n	80037dc <UART_AdvFeatureConfig+0x94>
 80037bc:	6801      	ldr	r1, [r0, #0]
 80037be:	6c04      	ldr	r4, [r0, #64]	@ 0x40
 80037c0:	684a      	ldr	r2, [r1, #4]
 80037c2:	f422 1280 	bic.w	r2, r2, #1048576	@ 0x100000
 80037c6:	4322      	orrs	r2, r4
 80037c8:	f5b4 1f80 	cmp.w	r4, #1048576	@ 0x100000
 80037cc:	604a      	str	r2, [r1, #4]
 80037ce:	d105      	bne.n	80037dc <UART_AdvFeatureConfig+0x94>
 80037d0:	684a      	ldr	r2, [r1, #4]
 80037d2:	6c44      	ldr	r4, [r0, #68]	@ 0x44
 80037d4:	f422 02c0 	bic.w	r2, r2, #6291456	@ 0x600000
 80037d8:	4322      	orrs	r2, r4
 80037da:	604a      	str	r2, [r1, #4]
 80037dc:	061b      	lsls	r3, r3, #24
 80037de:	d506      	bpl.n	80037ee <UART_AdvFeatureConfig+0xa6>
 80037e0:	6802      	ldr	r2, [r0, #0]
 80037e2:	6c81      	ldr	r1, [r0, #72]	@ 0x48
 80037e4:	6853      	ldr	r3, [r2, #4]
 80037e6:	f423 2300 	bic.w	r3, r3, #524288	@ 0x80000
 80037ea:	430b      	orrs	r3, r1
 80037ec:	6053      	str	r3, [r2, #4]
 80037ee:	bd10      	pop	{r4, pc}

080037f0 <UART_WaitOnFlagUntilTimeout>:
 80037f0:	e92d 43f8 	stmdb	sp!, {r3, r4, r5, r6, r7, r8, r9, lr}
 80037f4:	f8dd 9020 	ldr.w	r9, [sp, #32]
 80037f8:	4604      	mov	r4, r0
 80037fa:	460d      	mov	r5, r1
 80037fc:	4617      	mov	r7, r2
 80037fe:	4698      	mov	r8, r3
 8003800:	6822      	ldr	r2, [r4, #0]
 8003802:	69d3      	ldr	r3, [r2, #28]
 8003804:	ea35 0303 	bics.w	r3, r5, r3
 8003808:	bf0c      	ite	eq
 800380a:	2301      	moveq	r3, #1
 800380c:	2300      	movne	r3, #0
 800380e:	42bb      	cmp	r3, r7
 8003810:	d001      	beq.n	8003816 <UART_WaitOnFlagUntilTimeout+0x26>
 8003812:	2000      	movs	r0, #0
 8003814:	e022      	b.n	800385c <UART_WaitOnFlagUntilTimeout+0x6c>
 8003816:	f1b9 3fff 	cmp.w	r9, #4294967295
 800381a:	d0f2      	beq.n	8003802 <UART_WaitOnFlagUntilTimeout+0x12>
 800381c:	f7fd fec4 	bl	80015a8 <HAL_GetTick>
 8003820:	eba0 0008 	sub.w	r0, r0, r8
 8003824:	4548      	cmp	r0, r9
 8003826:	d829      	bhi.n	800387c <UART_WaitOnFlagUntilTimeout+0x8c>
 8003828:	f1b9 0f00 	cmp.w	r9, #0
 800382c:	d026      	beq.n	800387c <UART_WaitOnFlagUntilTimeout+0x8c>
 800382e:	6821      	ldr	r1, [r4, #0]
 8003830:	680b      	ldr	r3, [r1, #0]
 8003832:	075a      	lsls	r2, r3, #29
 8003834:	d5e4      	bpl.n	8003800 <UART_WaitOnFlagUntilTimeout+0x10>
 8003836:	2d80      	cmp	r5, #128	@ 0x80
 8003838:	d0e2      	beq.n	8003800 <UART_WaitOnFlagUntilTimeout+0x10>
 800383a:	2d40      	cmp	r5, #64	@ 0x40
 800383c:	d0e0      	beq.n	8003800 <UART_WaitOnFlagUntilTimeout+0x10>
 800383e:	69ce      	ldr	r6, [r1, #28]
 8003840:	f016 0608 	ands.w	r6, r6, #8
 8003844:	d00c      	beq.n	8003860 <UART_WaitOnFlagUntilTimeout+0x70>
 8003846:	2508      	movs	r5, #8
 8003848:	4620      	mov	r0, r4
 800384a:	620d      	str	r5, [r1, #32]
 800384c:	f7ff fcca 	bl	80031e4 <UART_EndRxTransfer>
 8003850:	2300      	movs	r3, #0
 8003852:	f8c4 5084 	str.w	r5, [r4, #132]	@ 0x84
 8003856:	f884 3078 	strb.w	r3, [r4, #120]	@ 0x78
 800385a:	2001      	movs	r0, #1
 800385c:	e8bd 83f8 	ldmia.w	sp!, {r3, r4, r5, r6, r7, r8, r9, pc}
 8003860:	69cb      	ldr	r3, [r1, #28]
 8003862:	051b      	lsls	r3, r3, #20
 8003864:	d5cc      	bpl.n	8003800 <UART_WaitOnFlagUntilTimeout+0x10>
 8003866:	f44f 6300 	mov.w	r3, #2048	@ 0x800
 800386a:	620b      	str	r3, [r1, #32]
 800386c:	4620      	mov	r0, r4
 800386e:	f7ff fcb9 	bl	80031e4 <UART_EndRxTransfer>
 8003872:	2320      	movs	r3, #32
 8003874:	f8c4 3084 	str.w	r3, [r4, #132]	@ 0x84
 8003878:	f884 6078 	strb.w	r6, [r4, #120]	@ 0x78
 800387c:	2003      	movs	r0, #3
 800387e:	e7ed      	b.n	800385c <UART_WaitOnFlagUntilTimeout+0x6c>

08003880 <UART_CheckIdleState>:
 8003880:	b573      	push	{r0, r1, r4, r5, r6, lr}
 8003882:	4604      	mov	r4, r0
 8003884:	2600      	movs	r6, #0
 8003886:	f8c0 6084 	str.w	r6, [r0, #132]	@ 0x84
 800388a:	f7fd fe8d 	bl	80015a8 <HAL_GetTick>
 800388e:	6823      	ldr	r3, [r4, #0]
 8003890:	681b      	ldr	r3, [r3, #0]
 8003892:	071a      	lsls	r2, r3, #28
 8003894:	4605      	mov	r5, r0
 8003896:	d51b      	bpl.n	80038d0 <UART_CheckIdleState+0x50>
 8003898:	f06f 437e 	mvn.w	r3, #4261412864	@ 0xfe000000
 800389c:	9300      	str	r3, [sp, #0]
 800389e:	4632      	mov	r2, r6
 80038a0:	4603      	mov	r3, r0
 80038a2:	f44f 1100 	mov.w	r1, #2097152	@ 0x200000
 80038a6:	4620      	mov	r0, r4
 80038a8:	f7ff ffa2 	bl	80037f0 <UART_WaitOnFlagUntilTimeout>
 80038ac:	b180      	cbz	r0, 80038d0 <UART_CheckIdleState+0x50>
 80038ae:	6822      	ldr	r2, [r4, #0]
 80038b0:	e852 3f00 	ldrex	r3, [r2]
 80038b4:	f023 0380 	bic.w	r3, r3, #128	@ 0x80
 80038b8:	e842 3100 	strex	r1, r3, [r2]
 80038bc:	2900      	cmp	r1, #0
 80038be:	d1f6      	bne.n	80038ae <UART_CheckIdleState+0x2e>
 80038c0:	2320      	movs	r3, #32
 80038c2:	67e3      	str	r3, [r4, #124]	@ 0x7c
 80038c4:	2003      	movs	r0, #3
 80038c6:	2300      	movs	r3, #0
 80038c8:	f884 3078 	strb.w	r3, [r4, #120]	@ 0x78
 80038cc:	b002      	add	sp, #8
 80038ce:	bd70      	pop	{r4, r5, r6, pc}
 80038d0:	6823      	ldr	r3, [r4, #0]
 80038d2:	681b      	ldr	r3, [r3, #0]
 80038d4:	075b      	lsls	r3, r3, #29
 80038d6:	d524      	bpl.n	8003922 <UART_CheckIdleState+0xa2>
 80038d8:	f06f 437e 	mvn.w	r3, #4261412864	@ 0xfe000000
 80038dc:	9300      	str	r3, [sp, #0]
 80038de:	2200      	movs	r2, #0
 80038e0:	462b      	mov	r3, r5
 80038e2:	f44f 0180 	mov.w	r1, #4194304	@ 0x400000
 80038e6:	4620      	mov	r0, r4
 80038e8:	f7ff ff82 	bl	80037f0 <UART_WaitOnFlagUntilTimeout>
 80038ec:	b1c8      	cbz	r0, 8003922 <UART_CheckIdleState+0xa2>
 80038ee:	6822      	ldr	r2, [r4, #0]
 80038f0:	e852 3f00 	ldrex	r3, [r2]
 80038f4:	f423 7390 	bic.w	r3, r3, #288	@ 0x120
 80038f8:	e842 3100 	strex	r1, r3, [r2]
 80038fc:	6822      	ldr	r2, [r4, #0]
 80038fe:	2900      	cmp	r1, #0
 8003900:	d1f5      	bne.n	80038ee <UART_CheckIdleState+0x6e>
 8003902:	f102 0308 	add.w	r3, r2, #8
 8003906:	e853 3f00 	ldrex	r3, [r3]
 800390a:	f023 0301 	bic.w	r3, r3, #1
 800390e:	f102 0008 	add.w	r0, r2, #8
 8003912:	e840 3100 	strex	r1, r3, [r0]
 8003916:	2900      	cmp	r1, #0
 8003918:	d1f3      	bne.n	8003902 <UART_CheckIdleState+0x82>
 800391a:	2320      	movs	r3, #32
 800391c:	f8c4 3080 	str.w	r3, [r4, #128]	@ 0x80
 8003920:	e7d0      	b.n	80038c4 <UART_CheckIdleState+0x44>
 8003922:	2320      	movs	r3, #32
 8003924:	2000      	movs	r0, #0
 8003926:	67e3      	str	r3, [r4, #124]	@ 0x7c
 8003928:	f8c4 3080 	str.w	r3, [r4, #128]	@ 0x80
 800392c:	6620      	str	r0, [r4, #96]	@ 0x60
 800392e:	6660      	str	r0, [r4, #100]	@ 0x64
 8003930:	e7c9      	b.n	80038c6 <UART_CheckIdleState+0x46>

08003932 <HAL_UART_Init>:
 8003932:	b510      	push	{r4, lr}
 8003934:	4604      	mov	r4, r0
 8003936:	b340      	cbz	r0, 800398a <HAL_UART_Init+0x58>
 8003938:	6fc3      	ldr	r3, [r0, #124]	@ 0x7c
 800393a:	b91b      	cbnz	r3, 8003944 <HAL_UART_Init+0x12>
 800393c:	f880 3078 	strb.w	r3, [r0, #120]	@ 0x78
 8003940:	f7fd fd44 	bl	80013cc <HAL_UART_MspInit>
 8003944:	6822      	ldr	r2, [r4, #0]
 8003946:	2324      	movs	r3, #36	@ 0x24
 8003948:	67e3      	str	r3, [r4, #124]	@ 0x7c
 800394a:	6813      	ldr	r3, [r2, #0]
 800394c:	f023 0301 	bic.w	r3, r3, #1
 8003950:	6013      	str	r3, [r2, #0]
 8003952:	6a63      	ldr	r3, [r4, #36]	@ 0x24
 8003954:	b113      	cbz	r3, 800395c <HAL_UART_Init+0x2a>
 8003956:	4620      	mov	r0, r4
 8003958:	f7ff fef6 	bl	8003748 <UART_AdvFeatureConfig>
 800395c:	4620      	mov	r0, r4
 800395e:	f7ff fe59 	bl	8003614 <UART_SetConfig>
 8003962:	2801      	cmp	r0, #1
 8003964:	d011      	beq.n	800398a <HAL_UART_Init+0x58>
 8003966:	6823      	ldr	r3, [r4, #0]
 8003968:	685a      	ldr	r2, [r3, #4]
 800396a:	f422 4290 	bic.w	r2, r2, #18432	@ 0x4800
 800396e:	605a      	str	r2, [r3, #4]
 8003970:	689a      	ldr	r2, [r3, #8]
 8003972:	f022 022a 	bic.w	r2, r2, #42	@ 0x2a
 8003976:	609a      	str	r2, [r3, #8]
 8003978:	681a      	ldr	r2, [r3, #0]
 800397a:	f042 0201 	orr.w	r2, r2, #1
 800397e:	4620      	mov	r0, r4
 8003980:	601a      	str	r2, [r3, #0]
 8003982:	e8bd 4010 	ldmia.w	sp!, {r4, lr}
 8003986:	f7ff bf7b 	b.w	8003880 <UART_CheckIdleState>
 800398a:	2001      	movs	r0, #1
 800398c:	bd10      	pop	{r4, pc}

0800398e <HAL_UARTEx_WakeupCallback>:
 800398e:	4770      	bx	lr

08003990 <siprintf>:
 8003990:	b40e      	push	{r1, r2, r3}
 8003992:	b510      	push	{r4, lr}
 8003994:	b09d      	sub	sp, #116	@ 0x74
 8003996:	ab1f      	add	r3, sp, #124	@ 0x7c
 8003998:	9002      	str	r0, [sp, #8]
 800399a:	9006      	str	r0, [sp, #24]
 800399c:	f06f 4100 	mvn.w	r1, #2147483648	@ 0x80000000
 80039a0:	480a      	ldr	r0, [pc, #40]	@ (80039cc <siprintf+0x3c>)
 80039a2:	9107      	str	r1, [sp, #28]
 80039a4:	9104      	str	r1, [sp, #16]
 80039a6:	490a      	ldr	r1, [pc, #40]	@ (80039d0 <siprintf+0x40>)
 80039a8:	f853 2b04 	ldr.w	r2, [r3], #4
 80039ac:	9105      	str	r1, [sp, #20]
 80039ae:	2400      	movs	r4, #0
 80039b0:	a902      	add	r1, sp, #8
 80039b2:	6800      	ldr	r0, [r0, #0]
 80039b4:	9301      	str	r3, [sp, #4]
 80039b6:	941b      	str	r4, [sp, #108]	@ 0x6c
 80039b8:	f000 f994 	bl	8003ce4 <_svfiprintf_r>
 80039bc:	9b02      	ldr	r3, [sp, #8]
 80039be:	701c      	strb	r4, [r3, #0]
 80039c0:	b01d      	add	sp, #116	@ 0x74
 80039c2:	e8bd 4010 	ldmia.w	sp!, {r4, lr}
 80039c6:	b003      	add	sp, #12
 80039c8:	4770      	bx	lr
 80039ca:	bf00      	nop
 80039cc:	20000020 	.word	0x20000020
 80039d0:	ffff0208 	.word	0xffff0208

080039d4 <memset>:
 80039d4:	4402      	add	r2, r0
 80039d6:	4603      	mov	r3, r0
 80039d8:	4293      	cmp	r3, r2
 80039da:	d100      	bne.n	80039de <memset+0xa>
 80039dc:	4770      	bx	lr
 80039de:	f803 1b01 	strb.w	r1, [r3], #1
 80039e2:	e7f9      	b.n	80039d8 <memset+0x4>

080039e4 <__errno>:
 80039e4:	4b01      	ldr	r3, [pc, #4]	@ (80039ec <__errno+0x8>)
 80039e6:	6818      	ldr	r0, [r3, #0]
 80039e8:	4770      	bx	lr
 80039ea:	bf00      	nop
 80039ec:	20000020 	.word	0x20000020

080039f0 <__libc_init_array>:
 80039f0:	b570      	push	{r4, r5, r6, lr}
 80039f2:	4d0d      	ldr	r5, [pc, #52]	@ (8003a28 <__libc_init_array+0x38>)
 80039f4:	4c0d      	ldr	r4, [pc, #52]	@ (8003a2c <__libc_init_array+0x3c>)
 80039f6:	1b64      	subs	r4, r4, r5
 80039f8:	10a4      	asrs	r4, r4, #2
 80039fa:	2600      	movs	r6, #0
 80039fc:	42a6      	cmp	r6, r4
 80039fe:	d109      	bne.n	8003a14 <__libc_init_array+0x24>
 8003a00:	4d0b      	ldr	r5, [pc, #44]	@ (8003a30 <__libc_init_array+0x40>)
 8003a02:	4c0c      	ldr	r4, [pc, #48]	@ (8003a34 <__libc_init_array+0x44>)
 8003a04:	f000 fd8a 	bl	800451c <_init>
 8003a08:	1b64      	subs	r4, r4, r5
 8003a0a:	10a4      	asrs	r4, r4, #2
 8003a0c:	2600      	movs	r6, #0
 8003a0e:	42a6      	cmp	r6, r4
 8003a10:	d105      	bne.n	8003a1e <__libc_init_array+0x2e>
 8003a12:	bd70      	pop	{r4, r5, r6, pc}
 8003a14:	f855 3b04 	ldr.w	r3, [r5], #4
 8003a18:	4798      	blx	r3
 8003a1a:	3601      	adds	r6, #1
 8003a1c:	e7ee      	b.n	80039fc <__libc_init_array+0xc>
 8003a1e:	f855 3b04 	ldr.w	r3, [r5], #4
 8003a22:	4798      	blx	r3
 8003a24:	3601      	adds	r6, #1
 8003a26:	e7f2      	b.n	8003a0e <__libc_init_array+0x1e>
 8003a28:	080045dc 	.word	0x080045dc
 8003a2c:	080045dc 	.word	0x080045dc
 8003a30:	080045dc 	.word	0x080045dc
 8003a34:	080045e0 	.word	0x080045e0

08003a38 <__retarget_lock_acquire_recursive>:
 8003a38:	4770      	bx	lr

08003a3a <__retarget_lock_release_recursive>:
 8003a3a:	4770      	bx	lr

08003a3c <_free_r>:
 8003a3c:	b538      	push	{r3, r4, r5, lr}
 8003a3e:	4605      	mov	r5, r0
 8003a40:	2900      	cmp	r1, #0
 8003a42:	d041      	beq.n	8003ac8 <_free_r+0x8c>
 8003a44:	f851 3c04 	ldr.w	r3, [r1, #-4]
 8003a48:	1f0c      	subs	r4, r1, #4
 8003a4a:	2b00      	cmp	r3, #0
 8003a4c:	bfb8      	it	lt
 8003a4e:	18e4      	addlt	r4, r4, r3
 8003a50:	f000 f8e0 	bl	8003c14 <__malloc_lock>
 8003a54:	4a1d      	ldr	r2, [pc, #116]	@ (8003acc <_free_r+0x90>)
 8003a56:	6813      	ldr	r3, [r2, #0]
 8003a58:	b933      	cbnz	r3, 8003a68 <_free_r+0x2c>
 8003a5a:	6063      	str	r3, [r4, #4]
 8003a5c:	6014      	str	r4, [r2, #0]
 8003a5e:	4628      	mov	r0, r5
 8003a60:	e8bd 4038 	ldmia.w	sp!, {r3, r4, r5, lr}
 8003a64:	f000 b8dc 	b.w	8003c20 <__malloc_unlock>
 8003a68:	42a3      	cmp	r3, r4
 8003a6a:	d908      	bls.n	8003a7e <_free_r+0x42>
 8003a6c:	6820      	ldr	r0, [r4, #0]
 8003a6e:	1821      	adds	r1, r4, r0
 8003a70:	428b      	cmp	r3, r1
 8003a72:	bf01      	itttt	eq
 8003a74:	6819      	ldreq	r1, [r3, #0]
 8003a76:	685b      	ldreq	r3, [r3, #4]
 8003a78:	1809      	addeq	r1, r1, r0
 8003a7a:	6021      	streq	r1, [r4, #0]
 8003a7c:	e7ed      	b.n	8003a5a <_free_r+0x1e>
 8003a7e:	461a      	mov	r2, r3
 8003a80:	685b      	ldr	r3, [r3, #4]
 8003a82:	b10b      	cbz	r3, 8003a88 <_free_r+0x4c>
 8003a84:	42a3      	cmp	r3, r4
 8003a86:	d9fa      	bls.n	8003a7e <_free_r+0x42>
 8003a88:	6811      	ldr	r1, [r2, #0]
 8003a8a:	1850      	adds	r0, r2, r1
 8003a8c:	42a0      	cmp	r0, r4
 8003a8e:	d10b      	bne.n	8003aa8 <_free_r+0x6c>
 8003a90:	6820      	ldr	r0, [r4, #0]
 8003a92:	4401      	add	r1, r0
 8003a94:	1850      	adds	r0, r2, r1
 8003a96:	4283      	cmp	r3, r0
 8003a98:	6011      	str	r1, [r2, #0]
 8003a9a:	d1e0      	bne.n	8003a5e <_free_r+0x22>
 8003a9c:	6818      	ldr	r0, [r3, #0]
 8003a9e:	685b      	ldr	r3, [r3, #4]
 8003aa0:	6053      	str	r3, [r2, #4]
 8003aa2:	4408      	add	r0, r1
 8003aa4:	6010      	str	r0, [r2, #0]
 8003aa6:	e7da      	b.n	8003a5e <_free_r+0x22>
 8003aa8:	d902      	bls.n	8003ab0 <_free_r+0x74>
 8003aaa:	230c      	movs	r3, #12
 8003aac:	602b      	str	r3, [r5, #0]
 8003aae:	e7d6      	b.n	8003a5e <_free_r+0x22>
 8003ab0:	6820      	ldr	r0, [r4, #0]
 8003ab2:	1821      	adds	r1, r4, r0
 8003ab4:	428b      	cmp	r3, r1
 8003ab6:	bf04      	itt	eq
 8003ab8:	6819      	ldreq	r1, [r3, #0]
 8003aba:	685b      	ldreq	r3, [r3, #4]
 8003abc:	6063      	str	r3, [r4, #4]
 8003abe:	bf04      	itt	eq
 8003ac0:	1809      	addeq	r1, r1, r0
 8003ac2:	6021      	streq	r1, [r4, #0]
 8003ac4:	6054      	str	r4, [r2, #4]
 8003ac6:	e7ca      	b.n	8003a5e <_free_r+0x22>
 8003ac8:	bd38      	pop	{r3, r4, r5, pc}
 8003aca:	bf00      	nop
 8003acc:	20000508 	.word	0x20000508

08003ad0 <sbrk_aligned>:
 8003ad0:	b570      	push	{r4, r5, r6, lr}
 8003ad2:	4e0f      	ldr	r6, [pc, #60]	@ (8003b10 <sbrk_aligned+0x40>)
 8003ad4:	460c      	mov	r4, r1
 8003ad6:	6831      	ldr	r1, [r6, #0]
 8003ad8:	4605      	mov	r5, r0
 8003ada:	b911      	cbnz	r1, 8003ae2 <sbrk_aligned+0x12>
 8003adc:	f000 fba4 	bl	8004228 <_sbrk_r>
 8003ae0:	6030      	str	r0, [r6, #0]
 8003ae2:	4621      	mov	r1, r4
 8003ae4:	4628      	mov	r0, r5
 8003ae6:	f000 fb9f 	bl	8004228 <_sbrk_r>
 8003aea:	1c43      	adds	r3, r0, #1
 8003aec:	d103      	bne.n	8003af6 <sbrk_aligned+0x26>
 8003aee:	f04f 34ff 	mov.w	r4, #4294967295
 8003af2:	4620      	mov	r0, r4
 8003af4:	bd70      	pop	{r4, r5, r6, pc}
 8003af6:	1cc4      	adds	r4, r0, #3
 8003af8:	f024 0403 	bic.w	r4, r4, #3
 8003afc:	42a0      	cmp	r0, r4
 8003afe:	d0f8      	beq.n	8003af2 <sbrk_aligned+0x22>
 8003b00:	1a21      	subs	r1, r4, r0
 8003b02:	4628      	mov	r0, r5
 8003b04:	f000 fb90 	bl	8004228 <_sbrk_r>
 8003b08:	3001      	adds	r0, #1
 8003b0a:	d1f2      	bne.n	8003af2 <sbrk_aligned+0x22>
 8003b0c:	e7ef      	b.n	8003aee <sbrk_aligned+0x1e>
 8003b0e:	bf00      	nop
 8003b10:	20000504 	.word	0x20000504

08003b14 <_malloc_r>:
 8003b14:	e92d 43f8 	stmdb	sp!, {r3, r4, r5, r6, r7, r8, r9, lr}
 8003b18:	1ccd      	adds	r5, r1, #3
 8003b1a:	f025 0503 	bic.w	r5, r5, #3
 8003b1e:	3508      	adds	r5, #8
 8003b20:	2d0c      	cmp	r5, #12
 8003b22:	bf38      	it	cc
 8003b24:	250c      	movcc	r5, #12
 8003b26:	2d00      	cmp	r5, #0
 8003b28:	4606      	mov	r6, r0
 8003b2a:	db01      	blt.n	8003b30 <_malloc_r+0x1c>
 8003b2c:	42a9      	cmp	r1, r5
 8003b2e:	d904      	bls.n	8003b3a <_malloc_r+0x26>
 8003b30:	230c      	movs	r3, #12
 8003b32:	6033      	str	r3, [r6, #0]
 8003b34:	2000      	movs	r0, #0
 8003b36:	e8bd 83f8 	ldmia.w	sp!, {r3, r4, r5, r6, r7, r8, r9, pc}
 8003b3a:	f8df 80d4 	ldr.w	r8, [pc, #212]	@ 8003c10 <_malloc_r+0xfc>
 8003b3e:	f000 f869 	bl	8003c14 <__malloc_lock>
 8003b42:	f8d8 3000 	ldr.w	r3, [r8]
 8003b46:	461c      	mov	r4, r3
 8003b48:	bb44      	cbnz	r4, 8003b9c <_malloc_r+0x88>
 8003b4a:	4629      	mov	r1, r5
 8003b4c:	4630      	mov	r0, r6
 8003b4e:	f7ff ffbf 	bl	8003ad0 <sbrk_aligned>
 8003b52:	1c43      	adds	r3, r0, #1
 8003b54:	4604      	mov	r4, r0
 8003b56:	d158      	bne.n	8003c0a <_malloc_r+0xf6>
 8003b58:	f8d8 4000 	ldr.w	r4, [r8]
 8003b5c:	4627      	mov	r7, r4
 8003b5e:	2f00      	cmp	r7, #0
 8003b60:	d143      	bne.n	8003bea <_malloc_r+0xd6>
 8003b62:	2c00      	cmp	r4, #0
 8003b64:	d04b      	beq.n	8003bfe <_malloc_r+0xea>
 8003b66:	6823      	ldr	r3, [r4, #0]
 8003b68:	4639      	mov	r1, r7
 8003b6a:	4630      	mov	r0, r6
 8003b6c:	eb04 0903 	add.w	r9, r4, r3
 8003b70:	f000 fb5a 	bl	8004228 <_sbrk_r>
 8003b74:	4581      	cmp	r9, r0
 8003b76:	d142      	bne.n	8003bfe <_malloc_r+0xea>
 8003b78:	6821      	ldr	r1, [r4, #0]
 8003b7a:	1a6d      	subs	r5, r5, r1
 8003b7c:	4629      	mov	r1, r5
 8003b7e:	4630      	mov	r0, r6
 8003b80:	f7ff ffa6 	bl	8003ad0 <sbrk_aligned>
 8003b84:	3001      	adds	r0, #1
 8003b86:	d03a      	beq.n	8003bfe <_malloc_r+0xea>
 8003b88:	6823      	ldr	r3, [r4, #0]
 8003b8a:	442b      	add	r3, r5
 8003b8c:	6023      	str	r3, [r4, #0]
 8003b8e:	f8d8 3000 	ldr.w	r3, [r8]
 8003b92:	685a      	ldr	r2, [r3, #4]
 8003b94:	bb62      	cbnz	r2, 8003bf0 <_malloc_r+0xdc>
 8003b96:	f8c8 7000 	str.w	r7, [r8]
 8003b9a:	e00f      	b.n	8003bbc <_malloc_r+0xa8>
 8003b9c:	6822      	ldr	r2, [r4, #0]
 8003b9e:	1b52      	subs	r2, r2, r5
 8003ba0:	d420      	bmi.n	8003be4 <_malloc_r+0xd0>
 8003ba2:	2a0b      	cmp	r2, #11
 8003ba4:	d917      	bls.n	8003bd6 <_malloc_r+0xc2>
 8003ba6:	1961      	adds	r1, r4, r5
 8003ba8:	42a3      	cmp	r3, r4
 8003baa:	6025      	str	r5, [r4, #0]
 8003bac:	bf18      	it	ne
 8003bae:	6059      	strne	r1, [r3, #4]
 8003bb0:	6863      	ldr	r3, [r4, #4]
 8003bb2:	bf08      	it	eq
 8003bb4:	f8c8 1000 	streq.w	r1, [r8]
 8003bb8:	5162      	str	r2, [r4, r5]
 8003bba:	604b      	str	r3, [r1, #4]
 8003bbc:	4630      	mov	r0, r6
 8003bbe:	f000 f82f 	bl	8003c20 <__malloc_unlock>
 8003bc2:	f104 000b 	add.w	r0, r4, #11
 8003bc6:	1d23      	adds	r3, r4, #4
 8003bc8:	f020 0007 	bic.w	r0, r0, #7
 8003bcc:	1ac2      	subs	r2, r0, r3
 8003bce:	bf1c      	itt	ne
 8003bd0:	1a1b      	subne	r3, r3, r0
 8003bd2:	50a3      	strne	r3, [r4, r2]
 8003bd4:	e7af      	b.n	8003b36 <_malloc_r+0x22>
 8003bd6:	6862      	ldr	r2, [r4, #4]
 8003bd8:	42a3      	cmp	r3, r4
 8003bda:	bf0c      	ite	eq
 8003bdc:	f8c8 2000 	streq.w	r2, [r8]
 8003be0:	605a      	strne	r2, [r3, #4]
 8003be2:	e7eb      	b.n	8003bbc <_malloc_r+0xa8>
 8003be4:	4623      	mov	r3, r4
 8003be6:	6864      	ldr	r4, [r4, #4]
 8003be8:	e7ae      	b.n	8003b48 <_malloc_r+0x34>
 8003bea:	463c      	mov	r4, r7
 8003bec:	687f      	ldr	r7, [r7, #4]
 8003bee:	e7b6      	b.n	8003b5e <_malloc_r+0x4a>
 8003bf0:	461a      	mov	r2, r3
 8003bf2:	685b      	ldr	r3, [r3, #4]
 8003bf4:	42a3      	cmp	r3, r4
 8003bf6:	d1fb      	bne.n	8003bf0 <_malloc_r+0xdc>
 8003bf8:	2300      	movs	r3, #0
 8003bfa:	6053      	str	r3, [r2, #4]
 8003bfc:	e7de      	b.n	8003bbc <_malloc_r+0xa8>
 8003bfe:	230c      	movs	r3, #12
 8003c00:	6033      	str	r3, [r6, #0]
 8003c02:	4630      	mov	r0, r6
 8003c04:	f000 f80c 	bl	8003c20 <__malloc_unlock>
 8003c08:	e794      	b.n	8003b34 <_malloc_r+0x20>
 8003c0a:	6005      	str	r5, [r0, #0]
 8003c0c:	e7d6      	b.n	8003bbc <_malloc_r+0xa8>
 8003c0e:	bf00      	nop
 8003c10:	20000508 	.word	0x20000508

08003c14 <__malloc_lock>:
 8003c14:	4801      	ldr	r0, [pc, #4]	@ (8003c1c <__malloc_lock+0x8>)
 8003c16:	f7ff bf0f 	b.w	8003a38 <__retarget_lock_acquire_recursive>
 8003c1a:	bf00      	nop
 8003c1c:	20000500 	.word	0x20000500

08003c20 <__malloc_unlock>:
 8003c20:	4801      	ldr	r0, [pc, #4]	@ (8003c28 <__malloc_unlock+0x8>)
 8003c22:	f7ff bf0a 	b.w	8003a3a <__retarget_lock_release_recursive>
 8003c26:	bf00      	nop
 8003c28:	20000500 	.word	0x20000500

08003c2c <__ssputs_r>:
 8003c2c:	e92d 47f0 	stmdb	sp!, {r4, r5, r6, r7, r8, r9, sl, lr}
 8003c30:	688e      	ldr	r6, [r1, #8]
 8003c32:	461f      	mov	r7, r3
 8003c34:	42be      	cmp	r6, r7
 8003c36:	680b      	ldr	r3, [r1, #0]
 8003c38:	4682      	mov	sl, r0
 8003c3a:	460c      	mov	r4, r1
 8003c3c:	4690      	mov	r8, r2
 8003c3e:	d82d      	bhi.n	8003c9c <__ssputs_r+0x70>
 8003c40:	f9b1 200c 	ldrsh.w	r2, [r1, #12]
 8003c44:	f412 6f90 	tst.w	r2, #1152	@ 0x480
 8003c48:	d026      	beq.n	8003c98 <__ssputs_r+0x6c>
 8003c4a:	6965      	ldr	r5, [r4, #20]
 8003c4c:	6909      	ldr	r1, [r1, #16]
 8003c4e:	eb05 0545 	add.w	r5, r5, r5, lsl #1
 8003c52:	eba3 0901 	sub.w	r9, r3, r1
 8003c56:	eb05 75d5 	add.w	r5, r5, r5, lsr #31
 8003c5a:	1c7b      	adds	r3, r7, #1
 8003c5c:	444b      	add	r3, r9
 8003c5e:	106d      	asrs	r5, r5, #1
 8003c60:	429d      	cmp	r5, r3
 8003c62:	bf38      	it	cc
 8003c64:	461d      	movcc	r5, r3
 8003c66:	0553      	lsls	r3, r2, #21
 8003c68:	d527      	bpl.n	8003cba <__ssputs_r+0x8e>
 8003c6a:	4629      	mov	r1, r5
 8003c6c:	f7ff ff52 	bl	8003b14 <_malloc_r>
 8003c70:	4606      	mov	r6, r0
 8003c72:	b360      	cbz	r0, 8003cce <__ssputs_r+0xa2>
 8003c74:	6921      	ldr	r1, [r4, #16]
 8003c76:	464a      	mov	r2, r9
 8003c78:	f000 fae6 	bl	8004248 <memcpy>
 8003c7c:	89a3      	ldrh	r3, [r4, #12]
 8003c7e:	f423 6390 	bic.w	r3, r3, #1152	@ 0x480
 8003c82:	f043 0380 	orr.w	r3, r3, #128	@ 0x80
 8003c86:	81a3      	strh	r3, [r4, #12]
 8003c88:	6126      	str	r6, [r4, #16]
 8003c8a:	6165      	str	r5, [r4, #20]
 8003c8c:	444e      	add	r6, r9
 8003c8e:	eba5 0509 	sub.w	r5, r5, r9
 8003c92:	6026      	str	r6, [r4, #0]
 8003c94:	60a5      	str	r5, [r4, #8]
 8003c96:	463e      	mov	r6, r7
 8003c98:	42be      	cmp	r6, r7
 8003c9a:	d900      	bls.n	8003c9e <__ssputs_r+0x72>
 8003c9c:	463e      	mov	r6, r7
 8003c9e:	6820      	ldr	r0, [r4, #0]
 8003ca0:	4632      	mov	r2, r6
 8003ca2:	4641      	mov	r1, r8
 8003ca4:	f000 faa6 	bl	80041f4 <memmove>
 8003ca8:	68a3      	ldr	r3, [r4, #8]
 8003caa:	1b9b      	subs	r3, r3, r6
 8003cac:	60a3      	str	r3, [r4, #8]
 8003cae:	6823      	ldr	r3, [r4, #0]
 8003cb0:	4433      	add	r3, r6
 8003cb2:	6023      	str	r3, [r4, #0]
 8003cb4:	2000      	movs	r0, #0
 8003cb6:	e8bd 87f0 	ldmia.w	sp!, {r4, r5, r6, r7, r8, r9, sl, pc}
 8003cba:	462a      	mov	r2, r5
 8003cbc:	f000 fad2 	bl	8004264 <_realloc_r>
 8003cc0:	4606      	mov	r6, r0
 8003cc2:	2800      	cmp	r0, #0
 8003cc4:	d1e0      	bne.n	8003c88 <__ssputs_r+0x5c>
 8003cc6:	6921      	ldr	r1, [r4, #16]
 8003cc8:	4650      	mov	r0, sl
 8003cca:	f7ff feb7 	bl	8003a3c <_free_r>
 8003cce:	230c      	movs	r3, #12
 8003cd0:	f8ca 3000 	str.w	r3, [sl]
 8003cd4:	89a3      	ldrh	r3, [r4, #12]
 8003cd6:	f043 0340 	orr.w	r3, r3, #64	@ 0x40
 8003cda:	81a3      	strh	r3, [r4, #12]
 8003cdc:	f04f 30ff 	mov.w	r0, #4294967295
 8003ce0:	e7e9      	b.n	8003cb6 <__ssputs_r+0x8a>
	...

08003ce4 <_svfiprintf_r>:
 8003ce4:	e92d 4ff0 	stmdb	sp!, {r4, r5, r6, r7, r8, r9, sl, fp, lr}
 8003ce8:	4698      	mov	r8, r3
 8003cea:	898b      	ldrh	r3, [r1, #12]
 8003cec:	061b      	lsls	r3, r3, #24
 8003cee:	b09d      	sub	sp, #116	@ 0x74
 8003cf0:	4607      	mov	r7, r0
 8003cf2:	460d      	mov	r5, r1
 8003cf4:	4614      	mov	r4, r2
 8003cf6:	d510      	bpl.n	8003d1a <_svfiprintf_r+0x36>
 8003cf8:	690b      	ldr	r3, [r1, #16]
 8003cfa:	b973      	cbnz	r3, 8003d1a <_svfiprintf_r+0x36>
 8003cfc:	2140      	movs	r1, #64	@ 0x40
 8003cfe:	f7ff ff09 	bl	8003b14 <_malloc_r>
 8003d02:	6028      	str	r0, [r5, #0]
 8003d04:	6128      	str	r0, [r5, #16]
 8003d06:	b930      	cbnz	r0, 8003d16 <_svfiprintf_r+0x32>
 8003d08:	230c      	movs	r3, #12
 8003d0a:	603b      	str	r3, [r7, #0]
 8003d0c:	f04f 30ff 	mov.w	r0, #4294967295
 8003d10:	b01d      	add	sp, #116	@ 0x74
 8003d12:	e8bd 8ff0 	ldmia.w	sp!, {r4, r5, r6, r7, r8, r9, sl, fp, pc}
 8003d16:	2340      	movs	r3, #64	@ 0x40
 8003d18:	616b      	str	r3, [r5, #20]
 8003d1a:	2300      	movs	r3, #0
 8003d1c:	9309      	str	r3, [sp, #36]	@ 0x24
 8003d1e:	2320      	movs	r3, #32
 8003d20:	f88d 3029 	strb.w	r3, [sp, #41]	@ 0x29
 8003d24:	f8cd 800c 	str.w	r8, [sp, #12]
 8003d28:	2330      	movs	r3, #48	@ 0x30
 8003d2a:	f8df 819c 	ldr.w	r8, [pc, #412]	@ 8003ec8 <_svfiprintf_r+0x1e4>
 8003d2e:	f88d 302a 	strb.w	r3, [sp, #42]	@ 0x2a
 8003d32:	f04f 0901 	mov.w	r9, #1
 8003d36:	4623      	mov	r3, r4
 8003d38:	469a      	mov	sl, r3
 8003d3a:	f813 2b01 	ldrb.w	r2, [r3], #1
 8003d3e:	b10a      	cbz	r2, 8003d44 <_svfiprintf_r+0x60>
 8003d40:	2a25      	cmp	r2, #37	@ 0x25
 8003d42:	d1f9      	bne.n	8003d38 <_svfiprintf_r+0x54>
 8003d44:	ebba 0b04 	subs.w	fp, sl, r4
 8003d48:	d00b      	beq.n	8003d62 <_svfiprintf_r+0x7e>
 8003d4a:	465b      	mov	r3, fp
 8003d4c:	4622      	mov	r2, r4
 8003d4e:	4629      	mov	r1, r5
 8003d50:	4638      	mov	r0, r7
 8003d52:	f7ff ff6b 	bl	8003c2c <__ssputs_r>
 8003d56:	3001      	adds	r0, #1
 8003d58:	f000 80a7 	beq.w	8003eaa <_svfiprintf_r+0x1c6>
 8003d5c:	9a09      	ldr	r2, [sp, #36]	@ 0x24
 8003d5e:	445a      	add	r2, fp
 8003d60:	9209      	str	r2, [sp, #36]	@ 0x24
 8003d62:	f89a 3000 	ldrb.w	r3, [sl]
 8003d66:	2b00      	cmp	r3, #0
 8003d68:	f000 809f 	beq.w	8003eaa <_svfiprintf_r+0x1c6>
 8003d6c:	2300      	movs	r3, #0
 8003d6e:	f04f 32ff 	mov.w	r2, #4294967295
 8003d72:	e9cd 2305 	strd	r2, r3, [sp, #20]
 8003d76:	f10a 0a01 	add.w	sl, sl, #1
 8003d7a:	9304      	str	r3, [sp, #16]
 8003d7c:	9307      	str	r3, [sp, #28]
 8003d7e:	f88d 3053 	strb.w	r3, [sp, #83]	@ 0x53
 8003d82:	931a      	str	r3, [sp, #104]	@ 0x68
 8003d84:	4654      	mov	r4, sl
 8003d86:	2205      	movs	r2, #5
 8003d88:	f814 1b01 	ldrb.w	r1, [r4], #1
 8003d8c:	484e      	ldr	r0, [pc, #312]	@ (8003ec8 <_svfiprintf_r+0x1e4>)
 8003d8e:	f7fc fa27 	bl	80001e0 <memchr>
 8003d92:	9a04      	ldr	r2, [sp, #16]
 8003d94:	b9d8      	cbnz	r0, 8003dce <_svfiprintf_r+0xea>
 8003d96:	06d0      	lsls	r0, r2, #27
 8003d98:	bf44      	itt	mi
 8003d9a:	2320      	movmi	r3, #32
 8003d9c:	f88d 3053 	strbmi.w	r3, [sp, #83]	@ 0x53
 8003da0:	0711      	lsls	r1, r2, #28
 8003da2:	bf44      	itt	mi
 8003da4:	232b      	movmi	r3, #43	@ 0x2b
 8003da6:	f88d 3053 	strbmi.w	r3, [sp, #83]	@ 0x53
 8003daa:	f89a 3000 	ldrb.w	r3, [sl]
 8003dae:	2b2a      	cmp	r3, #42	@ 0x2a
 8003db0:	d015      	beq.n	8003dde <_svfiprintf_r+0xfa>
 8003db2:	9a07      	ldr	r2, [sp, #28]
 8003db4:	4654      	mov	r4, sl
 8003db6:	2000      	movs	r0, #0
 8003db8:	f04f 0c0a 	mov.w	ip, #10
 8003dbc:	4621      	mov	r1, r4
 8003dbe:	f811 3b01 	ldrb.w	r3, [r1], #1
 8003dc2:	3b30      	subs	r3, #48	@ 0x30
 8003dc4:	2b09      	cmp	r3, #9
 8003dc6:	d94b      	bls.n	8003e60 <_svfiprintf_r+0x17c>
 8003dc8:	b1b0      	cbz	r0, 8003df8 <_svfiprintf_r+0x114>
 8003dca:	9207      	str	r2, [sp, #28]
 8003dcc:	e014      	b.n	8003df8 <_svfiprintf_r+0x114>
 8003dce:	eba0 0308 	sub.w	r3, r0, r8
 8003dd2:	fa09 f303 	lsl.w	r3, r9, r3
 8003dd6:	4313      	orrs	r3, r2
 8003dd8:	9304      	str	r3, [sp, #16]
 8003dda:	46a2      	mov	sl, r4
 8003ddc:	e7d2      	b.n	8003d84 <_svfiprintf_r+0xa0>
 8003dde:	9b03      	ldr	r3, [sp, #12]
 8003de0:	1d19      	adds	r1, r3, #4
 8003de2:	681b      	ldr	r3, [r3, #0]
 8003de4:	9103      	str	r1, [sp, #12]
 8003de6:	2b00      	cmp	r3, #0
 8003de8:	bfbb      	ittet	lt
 8003dea:	425b      	neglt	r3, r3
 8003dec:	f042 0202 	orrlt.w	r2, r2, #2
 8003df0:	9307      	strge	r3, [sp, #28]
 8003df2:	9307      	strlt	r3, [sp, #28]
 8003df4:	bfb8      	it	lt
 8003df6:	9204      	strlt	r2, [sp, #16]
 8003df8:	7823      	ldrb	r3, [r4, #0]
 8003dfa:	2b2e      	cmp	r3, #46	@ 0x2e
 8003dfc:	d10a      	bne.n	8003e14 <_svfiprintf_r+0x130>
 8003dfe:	7863      	ldrb	r3, [r4, #1]
 8003e00:	2b2a      	cmp	r3, #42	@ 0x2a
 8003e02:	d132      	bne.n	8003e6a <_svfiprintf_r+0x186>
 8003e04:	9b03      	ldr	r3, [sp, #12]
 8003e06:	1d1a      	adds	r2, r3, #4
 8003e08:	681b      	ldr	r3, [r3, #0]
 8003e0a:	9203      	str	r2, [sp, #12]
 8003e0c:	ea43 73e3 	orr.w	r3, r3, r3, asr #31
 8003e10:	3402      	adds	r4, #2
 8003e12:	9305      	str	r3, [sp, #20]
 8003e14:	f8df a0c0 	ldr.w	sl, [pc, #192]	@ 8003ed8 <_svfiprintf_r+0x1f4>
 8003e18:	7821      	ldrb	r1, [r4, #0]
 8003e1a:	2203      	movs	r2, #3
 8003e1c:	4650      	mov	r0, sl
 8003e1e:	f7fc f9df 	bl	80001e0 <memchr>
 8003e22:	b138      	cbz	r0, 8003e34 <_svfiprintf_r+0x150>
 8003e24:	9b04      	ldr	r3, [sp, #16]
 8003e26:	eba0 000a 	sub.w	r0, r0, sl
 8003e2a:	2240      	movs	r2, #64	@ 0x40
 8003e2c:	4082      	lsls	r2, r0
 8003e2e:	4313      	orrs	r3, r2
 8003e30:	3401      	adds	r4, #1
 8003e32:	9304      	str	r3, [sp, #16]
 8003e34:	f814 1b01 	ldrb.w	r1, [r4], #1
 8003e38:	4824      	ldr	r0, [pc, #144]	@ (8003ecc <_svfiprintf_r+0x1e8>)
 8003e3a:	f88d 1028 	strb.w	r1, [sp, #40]	@ 0x28
 8003e3e:	2206      	movs	r2, #6
 8003e40:	f7fc f9ce 	bl	80001e0 <memchr>
 8003e44:	2800      	cmp	r0, #0
 8003e46:	d036      	beq.n	8003eb6 <_svfiprintf_r+0x1d2>
 8003e48:	4b21      	ldr	r3, [pc, #132]	@ (8003ed0 <_svfiprintf_r+0x1ec>)
 8003e4a:	bb1b      	cbnz	r3, 8003e94 <_svfiprintf_r+0x1b0>
 8003e4c:	9b03      	ldr	r3, [sp, #12]
 8003e4e:	3307      	adds	r3, #7
 8003e50:	f023 0307 	bic.w	r3, r3, #7
 8003e54:	3308      	adds	r3, #8
 8003e56:	9303      	str	r3, [sp, #12]
 8003e58:	9b09      	ldr	r3, [sp, #36]	@ 0x24
 8003e5a:	4433      	add	r3, r6
 8003e5c:	9309      	str	r3, [sp, #36]	@ 0x24
 8003e5e:	e76a      	b.n	8003d36 <_svfiprintf_r+0x52>
 8003e60:	fb0c 3202 	mla	r2, ip, r2, r3
 8003e64:	460c      	mov	r4, r1
 8003e66:	2001      	movs	r0, #1
 8003e68:	e7a8      	b.n	8003dbc <_svfiprintf_r+0xd8>
 8003e6a:	2300      	movs	r3, #0
 8003e6c:	3401      	adds	r4, #1
 8003e6e:	9305      	str	r3, [sp, #20]
 8003e70:	4619      	mov	r1, r3
 8003e72:	f04f 0c0a 	mov.w	ip, #10
 8003e76:	4620      	mov	r0, r4
 8003e78:	f810 2b01 	ldrb.w	r2, [r0], #1
 8003e7c:	3a30      	subs	r2, #48	@ 0x30
 8003e7e:	2a09      	cmp	r2, #9
 8003e80:	d903      	bls.n	8003e8a <_svfiprintf_r+0x1a6>
 8003e82:	2b00      	cmp	r3, #0
 8003e84:	d0c6      	beq.n	8003e14 <_svfiprintf_r+0x130>
 8003e86:	9105      	str	r1, [sp, #20]
 8003e88:	e7c4      	b.n	8003e14 <_svfiprintf_r+0x130>
 8003e8a:	fb0c 2101 	mla	r1, ip, r1, r2
 8003e8e:	4604      	mov	r4, r0
 8003e90:	2301      	movs	r3, #1
 8003e92:	e7f0      	b.n	8003e76 <_svfiprintf_r+0x192>
 8003e94:	ab03      	add	r3, sp, #12
 8003e96:	9300      	str	r3, [sp, #0]
 8003e98:	462a      	mov	r2, r5
 8003e9a:	4b0e      	ldr	r3, [pc, #56]	@ (8003ed4 <_svfiprintf_r+0x1f0>)
 8003e9c:	a904      	add	r1, sp, #16
 8003e9e:	4638      	mov	r0, r7
 8003ea0:	f3af 8000 	nop.w
 8003ea4:	1c42      	adds	r2, r0, #1
 8003ea6:	4606      	mov	r6, r0
 8003ea8:	d1d6      	bne.n	8003e58 <_svfiprintf_r+0x174>
 8003eaa:	89ab      	ldrh	r3, [r5, #12]
 8003eac:	065b      	lsls	r3, r3, #25
 8003eae:	f53f af2d 	bmi.w	8003d0c <_svfiprintf_r+0x28>
 8003eb2:	9809      	ldr	r0, [sp, #36]	@ 0x24
 8003eb4:	e72c      	b.n	8003d10 <_svfiprintf_r+0x2c>
 8003eb6:	ab03      	add	r3, sp, #12
 8003eb8:	9300      	str	r3, [sp, #0]
 8003eba:	462a      	mov	r2, r5
 8003ebc:	4b05      	ldr	r3, [pc, #20]	@ (8003ed4 <_svfiprintf_r+0x1f0>)
 8003ebe:	a904      	add	r1, sp, #16
 8003ec0:	4638      	mov	r0, r7
 8003ec2:	f000 f879 	bl	8003fb8 <_printf_i>
 8003ec6:	e7ed      	b.n	8003ea4 <_svfiprintf_r+0x1c0>
 8003ec8:	08004563 	.word	0x08004563
 8003ecc:	0800456d 	.word	0x0800456d
 8003ed0:	00000000 	.word	0x00000000
 8003ed4:	08003c2d 	.word	0x08003c2d
 8003ed8:	08004569 	.word	0x08004569

08003edc <_printf_common>:
 8003edc:	e92d 47f0 	stmdb	sp!, {r4, r5, r6, r7, r8, r9, sl, lr}
 8003ee0:	4616      	mov	r6, r2
 8003ee2:	4698      	mov	r8, r3
 8003ee4:	688a      	ldr	r2, [r1, #8]
 8003ee6:	690b      	ldr	r3, [r1, #16]
 8003ee8:	f8dd 9020 	ldr.w	r9, [sp, #32]
 8003eec:	4293      	cmp	r3, r2
 8003eee:	bfb8      	it	lt
 8003ef0:	4613      	movlt	r3, r2
 8003ef2:	6033      	str	r3, [r6, #0]
 8003ef4:	f891 2043 	ldrb.w	r2, [r1, #67]	@ 0x43
 8003ef8:	4607      	mov	r7, r0
 8003efa:	460c      	mov	r4, r1
 8003efc:	b10a      	cbz	r2, 8003f02 <_printf_common+0x26>
 8003efe:	3301      	adds	r3, #1
 8003f00:	6033      	str	r3, [r6, #0]
 8003f02:	6823      	ldr	r3, [r4, #0]
 8003f04:	0699      	lsls	r1, r3, #26
 8003f06:	bf42      	ittt	mi
 8003f08:	6833      	ldrmi	r3, [r6, #0]
 8003f0a:	3302      	addmi	r3, #2
 8003f0c:	6033      	strmi	r3, [r6, #0]
 8003f0e:	6825      	ldr	r5, [r4, #0]
 8003f10:	f015 0506 	ands.w	r5, r5, #6
 8003f14:	d106      	bne.n	8003f24 <_printf_common+0x48>
 8003f16:	f104 0a19 	add.w	sl, r4, #25
 8003f1a:	68e3      	ldr	r3, [r4, #12]
 8003f1c:	6832      	ldr	r2, [r6, #0]
 8003f1e:	1a9b      	subs	r3, r3, r2
 8003f20:	42ab      	cmp	r3, r5
 8003f22:	dc26      	bgt.n	8003f72 <_printf_common+0x96>
 8003f24:	f894 3043 	ldrb.w	r3, [r4, #67]	@ 0x43
 8003f28:	6822      	ldr	r2, [r4, #0]
 8003f2a:	3b00      	subs	r3, #0
 8003f2c:	bf18      	it	ne
 8003f2e:	2301      	movne	r3, #1
 8003f30:	0692      	lsls	r2, r2, #26
 8003f32:	d42b      	bmi.n	8003f8c <_printf_common+0xb0>
 8003f34:	f104 0243 	add.w	r2, r4, #67	@ 0x43
 8003f38:	4641      	mov	r1, r8
 8003f3a:	4638      	mov	r0, r7
 8003f3c:	47c8      	blx	r9
 8003f3e:	3001      	adds	r0, #1
 8003f40:	d01e      	beq.n	8003f80 <_printf_common+0xa4>
 8003f42:	6823      	ldr	r3, [r4, #0]
 8003f44:	6922      	ldr	r2, [r4, #16]
 8003f46:	f003 0306 	and.w	r3, r3, #6
 8003f4a:	2b04      	cmp	r3, #4
 8003f4c:	bf02      	ittt	eq
 8003f4e:	68e5      	ldreq	r5, [r4, #12]
 8003f50:	6833      	ldreq	r3, [r6, #0]
 8003f52:	1aed      	subeq	r5, r5, r3
 8003f54:	68a3      	ldr	r3, [r4, #8]
 8003f56:	bf0c      	ite	eq
 8003f58:	ea25 75e5 	biceq.w	r5, r5, r5, asr #31
 8003f5c:	2500      	movne	r5, #0
 8003f5e:	4293      	cmp	r3, r2
 8003f60:	bfc4      	itt	gt
 8003f62:	1a9b      	subgt	r3, r3, r2
 8003f64:	18ed      	addgt	r5, r5, r3
 8003f66:	2600      	movs	r6, #0
 8003f68:	341a      	adds	r4, #26
 8003f6a:	42b5      	cmp	r5, r6
 8003f6c:	d11a      	bne.n	8003fa4 <_printf_common+0xc8>
 8003f6e:	2000      	movs	r0, #0
 8003f70:	e008      	b.n	8003f84 <_printf_common+0xa8>
 8003f72:	2301      	movs	r3, #1
 8003f74:	4652      	mov	r2, sl
 8003f76:	4641      	mov	r1, r8
 8003f78:	4638      	mov	r0, r7
 8003f7a:	47c8      	blx	r9
 8003f7c:	3001      	adds	r0, #1
 8003f7e:	d103      	bne.n	8003f88 <_printf_common+0xac>
 8003f80:	f04f 30ff 	mov.w	r0, #4294967295
 8003f84:	e8bd 87f0 	ldmia.w	sp!, {r4, r5, r6, r7, r8, r9, sl, pc}
 8003f88:	3501      	adds	r5, #1
 8003f8a:	e7c6      	b.n	8003f1a <_printf_common+0x3e>
 8003f8c:	18e1      	adds	r1, r4, r3
 8003f8e:	1c5a      	adds	r2, r3, #1
 8003f90:	2030      	movs	r0, #48	@ 0x30
 8003f92:	f881 0043 	strb.w	r0, [r1, #67]	@ 0x43
 8003f96:	4422      	add	r2, r4
 8003f98:	f894 1045 	ldrb.w	r1, [r4, #69]	@ 0x45
 8003f9c:	f882 1043 	strb.w	r1, [r2, #67]	@ 0x43
 8003fa0:	3302      	adds	r3, #2
 8003fa2:	e7c7      	b.n	8003f34 <_printf_common+0x58>
 8003fa4:	2301      	movs	r3, #1
 8003fa6:	4622      	mov	r2, r4
 8003fa8:	4641      	mov	r1, r8
 8003faa:	4638      	mov	r0, r7
 8003fac:	47c8      	blx	r9
 8003fae:	3001      	adds	r0, #1
 8003fb0:	d0e6      	beq.n	8003f80 <_printf_common+0xa4>
 8003fb2:	3601      	adds	r6, #1
 8003fb4:	e7d9      	b.n	8003f6a <_printf_common+0x8e>
	...

08003fb8 <_printf_i>:
 8003fb8:	e92d 47ff 	stmdb	sp!, {r0, r1, r2, r3, r4, r5, r6, r7, r8, r9, sl, lr}
 8003fbc:	7e0f      	ldrb	r7, [r1, #24]
 8003fbe:	9e0c      	ldr	r6, [sp, #48]	@ 0x30
 8003fc0:	2f78      	cmp	r7, #120	@ 0x78
 8003fc2:	4691      	mov	r9, r2
 8003fc4:	4680      	mov	r8, r0
 8003fc6:	460c      	mov	r4, r1
 8003fc8:	469a      	mov	sl, r3
 8003fca:	f101 0243 	add.w	r2, r1, #67	@ 0x43
 8003fce:	d807      	bhi.n	8003fe0 <_printf_i+0x28>
 8003fd0:	2f62      	cmp	r7, #98	@ 0x62
 8003fd2:	d80a      	bhi.n	8003fea <_printf_i+0x32>
 8003fd4:	2f00      	cmp	r7, #0
 8003fd6:	f000 80d1 	beq.w	800417c <_printf_i+0x1c4>
 8003fda:	2f58      	cmp	r7, #88	@ 0x58
 8003fdc:	f000 80b8 	beq.w	8004150 <_printf_i+0x198>
 8003fe0:	f104 0642 	add.w	r6, r4, #66	@ 0x42
 8003fe4:	f884 7042 	strb.w	r7, [r4, #66]	@ 0x42
 8003fe8:	e03a      	b.n	8004060 <_printf_i+0xa8>
 8003fea:	f1a7 0363 	sub.w	r3, r7, #99	@ 0x63
 8003fee:	2b15      	cmp	r3, #21
 8003ff0:	d8f6      	bhi.n	8003fe0 <_printf_i+0x28>
 8003ff2:	a101      	add	r1, pc, #4	@ (adr r1, 8003ff8 <_printf_i+0x40>)
 8003ff4:	f851 f023 	ldr.w	pc, [r1, r3, lsl #2]
 8003ff8:	08004051 	.word	0x08004051
 8003ffc:	08004065 	.word	0x08004065
 8004000:	08003fe1 	.word	0x08003fe1
 8004004:	08003fe1 	.word	0x08003fe1
 8004008:	08003fe1 	.word	0x08003fe1
 800400c:	08003fe1 	.word	0x08003fe1
 8004010:	08004065 	.word	0x08004065
 8004014:	08003fe1 	.word	0x08003fe1
 8004018:	08003fe1 	.word	0x08003fe1
 800401c:	08003fe1 	.word	0x08003fe1
 8004020:	08003fe1 	.word	0x08003fe1
 8004024:	08004163 	.word	0x08004163
 8004028:	0800408f 	.word	0x0800408f
 800402c:	0800411d 	.word	0x0800411d
 8004030:	08003fe1 	.word	0x08003fe1
 8004034:	08003fe1 	.word	0x08003fe1
 8004038:	08004185 	.word	0x08004185
 800403c:	08003fe1 	.word	0x08003fe1
 8004040:	0800408f 	.word	0x0800408f
 8004044:	08003fe1 	.word	0x08003fe1
 8004048:	08003fe1 	.word	0x08003fe1
 800404c:	08004125 	.word	0x08004125
 8004050:	6833      	ldr	r3, [r6, #0]
 8004052:	1d1a      	adds	r2, r3, #4
 8004054:	681b      	ldr	r3, [r3, #0]
 8004056:	6032      	str	r2, [r6, #0]
 8004058:	f104 0642 	add.w	r6, r4, #66	@ 0x42
 800405c:	f884 3042 	strb.w	r3, [r4, #66]	@ 0x42
 8004060:	2301      	movs	r3, #1
 8004062:	e09c      	b.n	800419e <_printf_i+0x1e6>
 8004064:	6833      	ldr	r3, [r6, #0]
 8004066:	6820      	ldr	r0, [r4, #0]
 8004068:	1d19      	adds	r1, r3, #4
 800406a:	6031      	str	r1, [r6, #0]
 800406c:	0606      	lsls	r6, r0, #24
 800406e:	d501      	bpl.n	8004074 <_printf_i+0xbc>
 8004070:	681d      	ldr	r5, [r3, #0]
 8004072:	e003      	b.n	800407c <_printf_i+0xc4>
 8004074:	0645      	lsls	r5, r0, #25
 8004076:	d5fb      	bpl.n	8004070 <_printf_i+0xb8>
 8004078:	f9b3 5000 	ldrsh.w	r5, [r3]
 800407c:	2d00      	cmp	r5, #0
 800407e:	da03      	bge.n	8004088 <_printf_i+0xd0>
 8004080:	232d      	movs	r3, #45	@ 0x2d
 8004082:	426d      	negs	r5, r5
 8004084:	f884 3043 	strb.w	r3, [r4, #67]	@ 0x43
 8004088:	4858      	ldr	r0, [pc, #352]	@ (80041ec <_printf_i+0x234>)
 800408a:	230a      	movs	r3, #10
 800408c:	e011      	b.n	80040b2 <_printf_i+0xfa>
 800408e:	6821      	ldr	r1, [r4, #0]
 8004090:	6833      	ldr	r3, [r6, #0]
 8004092:	0608      	lsls	r0, r1, #24
 8004094:	f853 5b04 	ldr.w	r5, [r3], #4
 8004098:	d402      	bmi.n	80040a0 <_printf_i+0xe8>
 800409a:	0649      	lsls	r1, r1, #25
 800409c:	bf48      	it	mi
 800409e:	b2ad      	uxthmi	r5, r5
 80040a0:	2f6f      	cmp	r7, #111	@ 0x6f
 80040a2:	4852      	ldr	r0, [pc, #328]	@ (80041ec <_printf_i+0x234>)
 80040a4:	6033      	str	r3, [r6, #0]
 80040a6:	bf14      	ite	ne
 80040a8:	230a      	movne	r3, #10
 80040aa:	2308      	moveq	r3, #8
 80040ac:	2100      	movs	r1, #0
 80040ae:	f884 1043 	strb.w	r1, [r4, #67]	@ 0x43
 80040b2:	6866      	ldr	r6, [r4, #4]
 80040b4:	60a6      	str	r6, [r4, #8]
 80040b6:	2e00      	cmp	r6, #0
 80040b8:	db05      	blt.n	80040c6 <_printf_i+0x10e>
 80040ba:	6821      	ldr	r1, [r4, #0]
 80040bc:	432e      	orrs	r6, r5
 80040be:	f021 0104 	bic.w	r1, r1, #4
 80040c2:	6021      	str	r1, [r4, #0]
 80040c4:	d04b      	beq.n	800415e <_printf_i+0x1a6>
 80040c6:	4616      	mov	r6, r2
 80040c8:	fbb5 f1f3 	udiv	r1, r5, r3
 80040cc:	fb03 5711 	mls	r7, r3, r1, r5
 80040d0:	5dc7      	ldrb	r7, [r0, r7]
 80040d2:	f806 7d01 	strb.w	r7, [r6, #-1]!
 80040d6:	462f      	mov	r7, r5
 80040d8:	42bb      	cmp	r3, r7
 80040da:	460d      	mov	r5, r1
 80040dc:	d9f4      	bls.n	80040c8 <_printf_i+0x110>
 80040de:	2b08      	cmp	r3, #8
 80040e0:	d10b      	bne.n	80040fa <_printf_i+0x142>
 80040e2:	6823      	ldr	r3, [r4, #0]
 80040e4:	07df      	lsls	r7, r3, #31
 80040e6:	d508      	bpl.n	80040fa <_printf_i+0x142>
 80040e8:	6923      	ldr	r3, [r4, #16]
 80040ea:	6861      	ldr	r1, [r4, #4]
 80040ec:	4299      	cmp	r1, r3
 80040ee:	bfde      	ittt	le
 80040f0:	2330      	movle	r3, #48	@ 0x30
 80040f2:	f806 3c01 	strble.w	r3, [r6, #-1]
 80040f6:	f106 36ff 	addle.w	r6, r6, #4294967295
 80040fa:	1b92      	subs	r2, r2, r6
 80040fc:	6122      	str	r2, [r4, #16]
 80040fe:	f8cd a000 	str.w	sl, [sp]
 8004102:	464b      	mov	r3, r9
 8004104:	aa03      	add	r2, sp, #12
 8004106:	4621      	mov	r1, r4
 8004108:	4640      	mov	r0, r8
 800410a:	f7ff fee7 	bl	8003edc <_printf_common>
 800410e:	3001      	adds	r0, #1
 8004110:	d14a      	bne.n	80041a8 <_printf_i+0x1f0>
 8004112:	f04f 30ff 	mov.w	r0, #4294967295
 8004116:	b004      	add	sp, #16
 8004118:	e8bd 87f0 	ldmia.w	sp!, {r4, r5, r6, r7, r8, r9, sl, pc}
 800411c:	6823      	ldr	r3, [r4, #0]
 800411e:	f043 0320 	orr.w	r3, r3, #32
 8004122:	6023      	str	r3, [r4, #0]
 8004124:	4832      	ldr	r0, [pc, #200]	@ (80041f0 <_printf_i+0x238>)
 8004126:	2778      	movs	r7, #120	@ 0x78
 8004128:	f884 7045 	strb.w	r7, [r4, #69]	@ 0x45
 800412c:	6823      	ldr	r3, [r4, #0]
 800412e:	6831      	ldr	r1, [r6, #0]
 8004130:	061f      	lsls	r7, r3, #24
 8004132:	f851 5b04 	ldr.w	r5, [r1], #4
 8004136:	d402      	bmi.n	800413e <_printf_i+0x186>
 8004138:	065f      	lsls	r7, r3, #25
 800413a:	bf48      	it	mi
 800413c:	b2ad      	uxthmi	r5, r5
 800413e:	6031      	str	r1, [r6, #0]
 8004140:	07d9      	lsls	r1, r3, #31
 8004142:	bf44      	itt	mi
 8004144:	f043 0320 	orrmi.w	r3, r3, #32
 8004148:	6023      	strmi	r3, [r4, #0]
 800414a:	b11d      	cbz	r5, 8004154 <_printf_i+0x19c>
 800414c:	2310      	movs	r3, #16
 800414e:	e7ad      	b.n	80040ac <_printf_i+0xf4>
 8004150:	4826      	ldr	r0, [pc, #152]	@ (80041ec <_printf_i+0x234>)
 8004152:	e7e9      	b.n	8004128 <_printf_i+0x170>
 8004154:	6823      	ldr	r3, [r4, #0]
 8004156:	f023 0320 	bic.w	r3, r3, #32
 800415a:	6023      	str	r3, [r4, #0]
 800415c:	e7f6      	b.n	800414c <_printf_i+0x194>
 800415e:	4616      	mov	r6, r2
 8004160:	e7bd      	b.n	80040de <_printf_i+0x126>
 8004162:	6833      	ldr	r3, [r6, #0]
 8004164:	6825      	ldr	r5, [r4, #0]
 8004166:	6961      	ldr	r1, [r4, #20]
 8004168:	1d18      	adds	r0, r3, #4
 800416a:	6030      	str	r0, [r6, #0]
 800416c:	062e      	lsls	r6, r5, #24
 800416e:	681b      	ldr	r3, [r3, #0]
 8004170:	d501      	bpl.n	8004176 <_printf_i+0x1be>
 8004172:	6019      	str	r1, [r3, #0]
 8004174:	e002      	b.n	800417c <_printf_i+0x1c4>
 8004176:	0668      	lsls	r0, r5, #25
 8004178:	d5fb      	bpl.n	8004172 <_printf_i+0x1ba>
 800417a:	8019      	strh	r1, [r3, #0]
 800417c:	2300      	movs	r3, #0
 800417e:	6123      	str	r3, [r4, #16]
 8004180:	4616      	mov	r6, r2
 8004182:	e7bc      	b.n	80040fe <_printf_i+0x146>
 8004184:	6833      	ldr	r3, [r6, #0]
 8004186:	1d1a      	adds	r2, r3, #4
 8004188:	6032      	str	r2, [r6, #0]
 800418a:	681e      	ldr	r6, [r3, #0]
 800418c:	6862      	ldr	r2, [r4, #4]
 800418e:	2100      	movs	r1, #0
 8004190:	4630      	mov	r0, r6
 8004192:	f7fc f825 	bl	80001e0 <memchr>
 8004196:	b108      	cbz	r0, 800419c <_printf_i+0x1e4>
 8004198:	1b80      	subs	r0, r0, r6
 800419a:	6060      	str	r0, [r4, #4]
 800419c:	6863      	ldr	r3, [r4, #4]
 800419e:	6123      	str	r3, [r4, #16]
 80041a0:	2300      	movs	r3, #0
 80041a2:	f884 3043 	strb.w	r3, [r4, #67]	@ 0x43
 80041a6:	e7aa      	b.n	80040fe <_printf_i+0x146>
 80041a8:	6923      	ldr	r3, [r4, #16]
 80041aa:	4632      	mov	r2, r6
 80041ac:	4649      	mov	r1, r9
 80041ae:	4640      	mov	r0, r8
 80041b0:	47d0      	blx	sl
 80041b2:	3001      	adds	r0, #1
 80041b4:	d0ad      	beq.n	8004112 <_printf_i+0x15a>
 80041b6:	6823      	ldr	r3, [r4, #0]
 80041b8:	079b      	lsls	r3, r3, #30
 80041ba:	d413      	bmi.n	80041e4 <_printf_i+0x22c>
 80041bc:	68e0      	ldr	r0, [r4, #12]
 80041be:	9b03      	ldr	r3, [sp, #12]
 80041c0:	4298      	cmp	r0, r3
 80041c2:	bfb8      	it	lt
 80041c4:	4618      	movlt	r0, r3
 80041c6:	e7a6      	b.n	8004116 <_printf_i+0x15e>
 80041c8:	2301      	movs	r3, #1
 80041ca:	4632      	mov	r2, r6
 80041cc:	4649      	mov	r1, r9
 80041ce:	4640      	mov	r0, r8
 80041d0:	47d0      	blx	sl
 80041d2:	3001      	adds	r0, #1
 80041d4:	d09d      	beq.n	8004112 <_printf_i+0x15a>
 80041d6:	3501      	adds	r5, #1
 80041d8:	68e3      	ldr	r3, [r4, #12]
 80041da:	9903      	ldr	r1, [sp, #12]
 80041dc:	1a5b      	subs	r3, r3, r1
 80041de:	42ab      	cmp	r3, r5
 80041e0:	dcf2      	bgt.n	80041c8 <_printf_i+0x210>
 80041e2:	e7eb      	b.n	80041bc <_printf_i+0x204>
 80041e4:	2500      	movs	r5, #0
 80041e6:	f104 0619 	add.w	r6, r4, #25
 80041ea:	e7f5      	b.n	80041d8 <_printf_i+0x220>
 80041ec:	08004574 	.word	0x08004574
 80041f0:	08004585 	.word	0x08004585

080041f4 <memmove>:
 80041f4:	4288      	cmp	r0, r1
 80041f6:	b510      	push	{r4, lr}
 80041f8:	eb01 0402 	add.w	r4, r1, r2
 80041fc:	d902      	bls.n	8004204 <memmove+0x10>
 80041fe:	4284      	cmp	r4, r0
 8004200:	4623      	mov	r3, r4
 8004202:	d807      	bhi.n	8004214 <memmove+0x20>
 8004204:	1e43      	subs	r3, r0, #1
 8004206:	42a1      	cmp	r1, r4
 8004208:	d008      	beq.n	800421c <memmove+0x28>
 800420a:	f811 2b01 	ldrb.w	r2, [r1], #1
 800420e:	f803 2f01 	strb.w	r2, [r3, #1]!
 8004212:	e7f8      	b.n	8004206 <memmove+0x12>
 8004214:	4402      	add	r2, r0
 8004216:	4601      	mov	r1, r0
 8004218:	428a      	cmp	r2, r1
 800421a:	d100      	bne.n	800421e <memmove+0x2a>
 800421c:	bd10      	pop	{r4, pc}
 800421e:	f813 4d01 	ldrb.w	r4, [r3, #-1]!
 8004222:	f802 4d01 	strb.w	r4, [r2, #-1]!
 8004226:	e7f7      	b.n	8004218 <memmove+0x24>

08004228 <_sbrk_r>:
 8004228:	b538      	push	{r3, r4, r5, lr}
 800422a:	4d06      	ldr	r5, [pc, #24]	@ (8004244 <_sbrk_r+0x1c>)
 800422c:	2300      	movs	r3, #0
 800422e:	4604      	mov	r4, r0
 8004230:	4608      	mov	r0, r1
 8004232:	602b      	str	r3, [r5, #0]
 8004234:	f7fc ff32 	bl	800109c <_sbrk>
 8004238:	1c43      	adds	r3, r0, #1
 800423a:	d102      	bne.n	8004242 <_sbrk_r+0x1a>
 800423c:	682b      	ldr	r3, [r5, #0]
 800423e:	b103      	cbz	r3, 8004242 <_sbrk_r+0x1a>
 8004240:	6023      	str	r3, [r4, #0]
 8004242:	bd38      	pop	{r3, r4, r5, pc}
 8004244:	200004fc 	.word	0x200004fc

08004248 <memcpy>:
 8004248:	440a      	add	r2, r1
 800424a:	4291      	cmp	r1, r2
 800424c:	f100 33ff 	add.w	r3, r0, #4294967295
 8004250:	d100      	bne.n	8004254 <memcpy+0xc>
 8004252:	4770      	bx	lr
 8004254:	b510      	push	{r4, lr}
 8004256:	f811 4b01 	ldrb.w	r4, [r1], #1
 800425a:	f803 4f01 	strb.w	r4, [r3, #1]!
 800425e:	4291      	cmp	r1, r2
 8004260:	d1f9      	bne.n	8004256 <memcpy+0xe>
 8004262:	bd10      	pop	{r4, pc}

08004264 <_realloc_r>:
 8004264:	e92d 41f0 	stmdb	sp!, {r4, r5, r6, r7, r8, lr}
 8004268:	4607      	mov	r7, r0
 800426a:	4614      	mov	r4, r2
 800426c:	460d      	mov	r5, r1
 800426e:	b921      	cbnz	r1, 800427a <_realloc_r+0x16>
 8004270:	e8bd 41f0 	ldmia.w	sp!, {r4, r5, r6, r7, r8, lr}
 8004274:	4611      	mov	r1, r2
 8004276:	f7ff bc4d 	b.w	8003b14 <_malloc_r>
 800427a:	b92a      	cbnz	r2, 8004288 <_realloc_r+0x24>
 800427c:	f7ff fbde 	bl	8003a3c <_free_r>
 8004280:	4625      	mov	r5, r4
 8004282:	4628      	mov	r0, r5
 8004284:	e8bd 81f0 	ldmia.w	sp!, {r4, r5, r6, r7, r8, pc}
 8004288:	f000 f81a 	bl	80042c0 <_malloc_usable_size_r>
 800428c:	4284      	cmp	r4, r0
 800428e:	4606      	mov	r6, r0
 8004290:	d802      	bhi.n	8004298 <_realloc_r+0x34>
 8004292:	ebb4 0f50 	cmp.w	r4, r0, lsr #1
 8004296:	d8f4      	bhi.n	8004282 <_realloc_r+0x1e>
 8004298:	4621      	mov	r1, r4
 800429a:	4638      	mov	r0, r7
 800429c:	f7ff fc3a 	bl	8003b14 <_malloc_r>
 80042a0:	4680      	mov	r8, r0
 80042a2:	b908      	cbnz	r0, 80042a8 <_realloc_r+0x44>
 80042a4:	4645      	mov	r5, r8
 80042a6:	e7ec      	b.n	8004282 <_realloc_r+0x1e>
 80042a8:	42b4      	cmp	r4, r6
 80042aa:	4622      	mov	r2, r4
 80042ac:	4629      	mov	r1, r5
 80042ae:	bf28      	it	cs
 80042b0:	4632      	movcs	r2, r6
 80042b2:	f7ff ffc9 	bl	8004248 <memcpy>
 80042b6:	4629      	mov	r1, r5
 80042b8:	4638      	mov	r0, r7
 80042ba:	f7ff fbbf 	bl	8003a3c <_free_r>
 80042be:	e7f1      	b.n	80042a4 <_realloc_r+0x40>

080042c0 <_malloc_usable_size_r>:
 80042c0:	f851 3c04 	ldr.w	r3, [r1, #-4]
 80042c4:	1f18      	subs	r0, r3, #4
 80042c6:	2b00      	cmp	r3, #0
 80042c8:	bfbc      	itt	lt
 80042ca:	580b      	ldrlt	r3, [r1, r0]
 80042cc:	18c0      	addlt	r0, r0, r3
 80042ce:	4770      	bx	lr

080042d0 <logf>:
 80042d0:	b508      	push	{r3, lr}
 80042d2:	ed2d 8b02 	vpush	{d8}
 80042d6:	eeb0 8a40 	vmov.f32	s16, s0
 80042da:	f000 f82d 	bl	8004338 <__ieee754_logf>
 80042de:	eeb4 8a48 	vcmp.f32	s16, s16
 80042e2:	eef1 fa10 	vmrs	APSR_nzcv, fpscr
 80042e6:	d60f      	bvs.n	8004308 <logf+0x38>
 80042e8:	eeb5 8ac0 	vcmpe.f32	s16, #0.0
 80042ec:	eef1 fa10 	vmrs	APSR_nzcv, fpscr
 80042f0:	dc0a      	bgt.n	8004308 <logf+0x38>
 80042f2:	eeb5 8a40 	vcmp.f32	s16, #0.0
 80042f6:	eef1 fa10 	vmrs	APSR_nzcv, fpscr
 80042fa:	d108      	bne.n	800430e <logf+0x3e>
 80042fc:	f7ff fb72 	bl	80039e4 <__errno>
 8004300:	2322      	movs	r3, #34	@ 0x22
 8004302:	ed9f 0a08 	vldr	s0, [pc, #32]	@ 8004324 <logf+0x54>
 8004306:	6003      	str	r3, [r0, #0]
 8004308:	ecbd 8b02 	vpop	{d8}
 800430c:	bd08      	pop	{r3, pc}
 800430e:	f7ff fb69 	bl	80039e4 <__errno>
 8004312:	ecbd 8b02 	vpop	{d8}
 8004316:	2321      	movs	r3, #33	@ 0x21
 8004318:	6003      	str	r3, [r0, #0]
 800431a:	e8bd 4008 	ldmia.w	sp!, {r3, lr}
 800431e:	4802      	ldr	r0, [pc, #8]	@ (8004328 <logf+0x58>)
 8004320:	f000 b804 	b.w	800432c <nanf>
 8004324:	ff800000 	.word	0xff800000
 8004328:	08004562 	.word	0x08004562

0800432c <nanf>:
 800432c:	ed9f 0a01 	vldr	s0, [pc, #4]	@ 8004334 <nanf+0x8>
 8004330:	4770      	bx	lr
 8004332:	bf00      	nop
 8004334:	7fc00000 	.word	0x7fc00000

08004338 <__ieee754_logf>:
 8004338:	ee10 3a10 	vmov	r3, s0
 800433c:	f033 4200 	bics.w	r2, r3, #2147483648	@ 0x80000000
 8004340:	d106      	bne.n	8004350 <__ieee754_logf+0x18>
 8004342:	ed9f 7a66 	vldr	s14, [pc, #408]	@ 80044dc <__ieee754_logf+0x1a4>
 8004346:	eddf 7a66 	vldr	s15, [pc, #408]	@ 80044e0 <__ieee754_logf+0x1a8>
 800434a:	ee87 0a27 	vdiv.f32	s0, s14, s15
 800434e:	4770      	bx	lr
 8004350:	2b00      	cmp	r3, #0
 8004352:	461a      	mov	r2, r3
 8004354:	da02      	bge.n	800435c <__ieee754_logf+0x24>
 8004356:	ee30 7a40 	vsub.f32	s14, s0, s0
 800435a:	e7f4      	b.n	8004346 <__ieee754_logf+0xe>
 800435c:	f1b3 4fff 	cmp.w	r3, #2139095040	@ 0x7f800000
 8004360:	db02      	blt.n	8004368 <__ieee754_logf+0x30>
 8004362:	ee30 0a00 	vadd.f32	s0, s0, s0
 8004366:	4770      	bx	lr
 8004368:	f5b3 0f00 	cmp.w	r3, #8388608	@ 0x800000
 800436c:	bfb8      	it	lt
 800436e:	eddf 7a5d 	vldrlt	s15, [pc, #372]	@ 80044e4 <__ieee754_logf+0x1ac>
 8004372:	485d      	ldr	r0, [pc, #372]	@ (80044e8 <__ieee754_logf+0x1b0>)
 8004374:	bfbe      	ittt	lt
 8004376:	ee60 7a27 	vmullt.f32	s15, s0, s15
 800437a:	f06f 0118 	mvnlt.w	r1, #24
 800437e:	ee17 2a90 	vmovlt	r2, s15
 8004382:	ea4f 53e2 	mov.w	r3, r2, asr #23
 8004386:	f3c2 0216 	ubfx	r2, r2, #0, #23
 800438a:	4410      	add	r0, r2
 800438c:	bfa8      	it	ge
 800438e:	2100      	movge	r1, #0
 8004390:	3b7f      	subs	r3, #127	@ 0x7f
 8004392:	440b      	add	r3, r1
 8004394:	f400 0100 	and.w	r1, r0, #8388608	@ 0x800000
 8004398:	f081 517e 	eor.w	r1, r1, #1065353216	@ 0x3f800000
 800439c:	4311      	orrs	r1, r2
 800439e:	ee00 1a10 	vmov	s0, r1
 80043a2:	4952      	ldr	r1, [pc, #328]	@ (80044ec <__ieee754_logf+0x1b4>)
 80043a4:	eb03 53d0 	add.w	r3, r3, r0, lsr #23
 80043a8:	f102 000f 	add.w	r0, r2, #15
 80043ac:	eef7 7a00 	vmov.f32	s15, #112	@ 0x3f800000  1.0
 80043b0:	4001      	ands	r1, r0
 80043b2:	ee30 0a67 	vsub.f32	s0, s0, s15
 80043b6:	bb89      	cbnz	r1, 800441c <__ieee754_logf+0xe4>
 80043b8:	eeb5 0a40 	vcmp.f32	s0, #0.0
 80043bc:	eef1 fa10 	vmrs	APSR_nzcv, fpscr
 80043c0:	d10f      	bne.n	80043e2 <__ieee754_logf+0xaa>
 80043c2:	2b00      	cmp	r3, #0
 80043c4:	f000 8087 	beq.w	80044d6 <__ieee754_logf+0x19e>
 80043c8:	ee07 3a90 	vmov	s15, r3
 80043cc:	ed9f 0a48 	vldr	s0, [pc, #288]	@ 80044f0 <__ieee754_logf+0x1b8>
 80043d0:	ed9f 7a48 	vldr	s14, [pc, #288]	@ 80044f4 <__ieee754_logf+0x1bc>
 80043d4:	eef8 7ae7 	vcvt.f32.s32	s15, s15
 80043d8:	ee27 0a80 	vmul.f32	s0, s15, s0
 80043dc:	eea7 0a87 	vfma.f32	s0, s15, s14
 80043e0:	4770      	bx	lr
 80043e2:	eddf 6a45 	vldr	s13, [pc, #276]	@ 80044f8 <__ieee754_logf+0x1c0>
 80043e6:	eef6 7a00 	vmov.f32	s15, #96	@ 0x3f000000  0.5
 80043ea:	eee0 7a66 	vfms.f32	s15, s0, s13
 80043ee:	ee20 7a00 	vmul.f32	s14, s0, s0
 80043f2:	ee27 7a27 	vmul.f32	s14, s14, s15
 80043f6:	b913      	cbnz	r3, 80043fe <__ieee754_logf+0xc6>
 80043f8:	ee30 0a47 	vsub.f32	s0, s0, s14
 80043fc:	4770      	bx	lr
 80043fe:	ee07 3a90 	vmov	s15, r3
 8004402:	eddf 6a3b 	vldr	s13, [pc, #236]	@ 80044f0 <__ieee754_logf+0x1b8>
 8004406:	eef8 7ae7 	vcvt.f32.s32	s15, s15
 800440a:	eea7 7ae6 	vfms.f32	s14, s15, s13
 800440e:	ee37 0a40 	vsub.f32	s0, s14, s0
 8004412:	ed9f 7a38 	vldr	s14, [pc, #224]	@ 80044f4 <__ieee754_logf+0x1bc>
 8004416:	ee97 0a87 	vfnms.f32	s0, s15, s14
 800441a:	4770      	bx	lr
 800441c:	eef0 7a00 	vmov.f32	s15, #0	@ 0x40000000  2.0
 8004420:	ee70 7a27 	vadd.f32	s15, s0, s15
 8004424:	eddf 5a35 	vldr	s11, [pc, #212]	@ 80044fc <__ieee754_logf+0x1c4>
 8004428:	eddf 4a35 	vldr	s9, [pc, #212]	@ 8004500 <__ieee754_logf+0x1c8>
 800442c:	4935      	ldr	r1, [pc, #212]	@ (8004504 <__ieee754_logf+0x1cc>)
 800442e:	ee80 6a27 	vdiv.f32	s12, s0, s15
 8004432:	4411      	add	r1, r2
 8004434:	f5c2 1257 	rsb	r2, r2, #3522560	@ 0x35c000
 8004438:	f502 7222 	add.w	r2, r2, #648	@ 0x288
 800443c:	430a      	orrs	r2, r1
 800443e:	2a00      	cmp	r2, #0
 8004440:	ee07 3a90 	vmov	s15, r3
 8004444:	ee26 5a06 	vmul.f32	s10, s12, s12
 8004448:	eef8 6ae7 	vcvt.f32.s32	s13, s15
 800444c:	ee25 7a05 	vmul.f32	s14, s10, s10
 8004450:	eddf 7a2d 	vldr	s15, [pc, #180]	@ 8004508 <__ieee754_logf+0x1d0>
 8004454:	eee7 7a25 	vfma.f32	s15, s14, s11
 8004458:	eddf 5a2c 	vldr	s11, [pc, #176]	@ 800450c <__ieee754_logf+0x1d4>
 800445c:	eee7 5a87 	vfma.f32	s11, s15, s14
 8004460:	eddf 7a2b 	vldr	s15, [pc, #172]	@ 8004510 <__ieee754_logf+0x1d8>
 8004464:	eee7 7a24 	vfma.f32	s15, s14, s9
 8004468:	eddf 4a2a 	vldr	s9, [pc, #168]	@ 8004514 <__ieee754_logf+0x1dc>
 800446c:	eee7 4a87 	vfma.f32	s9, s15, s14
 8004470:	eddf 7a29 	vldr	s15, [pc, #164]	@ 8004518 <__ieee754_logf+0x1e0>
 8004474:	eee4 7a87 	vfma.f32	s15, s9, s14
 8004478:	ee67 7a85 	vmul.f32	s15, s15, s10
 800447c:	eee5 7a87 	vfma.f32	s15, s11, s14
 8004480:	dd1a      	ble.n	80044b8 <__ieee754_logf+0x180>
 8004482:	eeb6 7a00 	vmov.f32	s14, #96	@ 0x3f000000  0.5
 8004486:	ee20 7a07 	vmul.f32	s14, s0, s14
 800448a:	ee27 7a00 	vmul.f32	s14, s14, s0
 800448e:	ee77 7a87 	vadd.f32	s15, s15, s14
 8004492:	ee67 7a86 	vmul.f32	s15, s15, s12
 8004496:	b913      	cbnz	r3, 800449e <__ieee754_logf+0x166>
 8004498:	ee37 7a67 	vsub.f32	s14, s14, s15
 800449c:	e7ac      	b.n	80043f8 <__ieee754_logf+0xc0>
 800449e:	ed9f 6a14 	vldr	s12, [pc, #80]	@ 80044f0 <__ieee754_logf+0x1b8>
 80044a2:	eee6 7a86 	vfma.f32	s15, s13, s12
 80044a6:	ee37 7a67 	vsub.f32	s14, s14, s15
 80044aa:	ee37 0a40 	vsub.f32	s0, s14, s0
 80044ae:	eddf 7a11 	vldr	s15, [pc, #68]	@ 80044f4 <__ieee754_logf+0x1bc>
 80044b2:	ee96 0aa7 	vfnms.f32	s0, s13, s15
 80044b6:	4770      	bx	lr
 80044b8:	ee70 7a67 	vsub.f32	s15, s0, s15
 80044bc:	ee67 7a86 	vmul.f32	s15, s15, s12
 80044c0:	b913      	cbnz	r3, 80044c8 <__ieee754_logf+0x190>
 80044c2:	ee30 0a67 	vsub.f32	s0, s0, s15
 80044c6:	4770      	bx	lr
 80044c8:	ed9f 7a09 	vldr	s14, [pc, #36]	@ 80044f0 <__ieee754_logf+0x1b8>
 80044cc:	eee6 7ac7 	vfms.f32	s15, s13, s14
 80044d0:	ee37 0ac0 	vsub.f32	s0, s15, s0
 80044d4:	e7eb      	b.n	80044ae <__ieee754_logf+0x176>
 80044d6:	ed9f 0a02 	vldr	s0, [pc, #8]	@ 80044e0 <__ieee754_logf+0x1a8>
 80044da:	4770      	bx	lr
 80044dc:	cc000000 	.word	0xcc000000
 80044e0:	00000000 	.word	0x00000000
 80044e4:	4c000000 	.word	0x4c000000
 80044e8:	004afb20 	.word	0x004afb20
 80044ec:	007ffff0 	.word	0x007ffff0
 80044f0:	3717f7d1 	.word	0x3717f7d1
 80044f4:	3f317180 	.word	0x3f317180
 80044f8:	3eaaaaab 	.word	0x3eaaaaab
 80044fc:	3e1cd04f 	.word	0x3e1cd04f
 8004500:	3e178897 	.word	0x3e178897
 8004504:	ffcf5c30 	.word	0xffcf5c30
 8004508:	3e638e29 	.word	0x3e638e29
 800450c:	3ecccccd 	.word	0x3ecccccd
 8004510:	3e3a3325 	.word	0x3e3a3325
 8004514:	3e924925 	.word	0x3e924925
 8004518:	3f2aaaab 	.word	0x3f2aaaab

0800451c <_init>:
 800451c:	b5f8      	push	{r3, r4, r5, r6, r7, lr}
 800451e:	bf00      	nop
 8004520:	bcf8      	pop	{r3, r4, r5, r6, r7}
 8004522:	bc08      	pop	{r3}
 8004524:	469e      	mov	lr, r3
 8004526:	4770      	bx	lr

08004528 <_fini>:
 8004528:	b5f8      	push	{r3, r4, r5, r6, r7, lr}
 800452a:	bf00      	nop
 800452c:	bcf8      	pop	{r3, r4, r5, r6, r7}
 800452e:	bc08      	pop	{r3}
 8004530:	469e      	mov	lr, r3
 8004532:	4770      	bx	lr
